
test:     file format elf64-littleriscv


Disassembly of section .text:

00000000000101b0 <abort>:
   101b0:	714d                	addi	sp,sp,-336
   101b2:	fa4a                	sd	s2,304(sp)
   101b4:	11818793          	addi	a5,gp,280 # 6c228 <lock>
   101b8:	679c                	ld	a5,8(a5)
   101ba:	e2a2                	sd	s0,320(sp)
   101bc:	fe26                	sd	s1,312(sp)
   101be:	e686                	sd	ra,328(sp)
   101c0:	f64e                	sd	s3,296(sp)
   101c2:	8f020493          	addi	s1,tp,-1808 # fffffffffffff8f0 <__BSS_END__+0xfffffffffff92878>
   101c6:	11818413          	addi	s0,gp,280 # 6c228 <lock>
   101ca:	02978063          	beq	a5,s1,101ea <abort+0x3a>
   101ce:	4705                	li	a4,1
   101d0:	100427af          	lr.w	a5,(s0)
   101d4:	e781                	bnez	a5,101dc <abort+0x2c>
   101d6:	1ce426af          	sc.w.aq	a3,a4,(s0)
   101da:	fafd                	bnez	a3,101d0 <abort+0x20>
   101dc:	2781                	sext.w	a5,a5
   101de:	c789                	beqz	a5,101e8 <abort+0x38>
   101e0:	11818513          	addi	a0,gp,280 # 6c228 <lock>
   101e4:	3a2110ef          	jal	ra,21586 <__lll_lock_wait_private>
   101e8:	e404                	sd	s1,8(s0)
   101ea:	405c                	lw	a5,4(s0)
   101ec:	a281a703          	lw	a4,-1496(gp) # 6bb38 <stage>
   101f0:	2785                	addiw	a5,a5,1
   101f2:	c05c                	sw	a5,4(s0)
   101f4:	e715                	bnez	a4,10220 <abort+0x70>
   101f6:	4705                	li	a4,1
   101f8:	003c                	addi	a5,sp,8
   101fa:	a2e1a423          	sw	a4,-1496(gp) # 6bb38 <stage>
   101fe:	85be                	mv	a1,a5
   10200:	f8010713          	addi	a4,sp,-128
   10204:	17e1                	addi	a5,a5,-8
   10206:	00e78563          	beq	a5,a4,10210 <abort+0x60>
   1020a:	0807b023          	sd	zero,128(a5)
   1020e:	bfdd                	j	10204 <abort+0x54>
   10210:	67a2                	ld	a5,8(sp)
   10212:	4601                	li	a2,0
   10214:	4505                	li	a0,1
   10216:	0207e793          	ori	a5,a5,32
   1021a:	e43e                	sd	a5,8(sp)
   1021c:	629030ef          	jal	ra,14044 <__sigprocmask>
   10220:	a281a703          	lw	a4,-1496(gp) # 6bb38 <stage>
   10224:	4785                	li	a5,1
   10226:	06f71763          	bne	a4,a5,10294 <abort+0xe4>
   1022a:	405c                	lw	a5,4(s0)
   1022c:	a201a423          	sw	zero,-1496(gp) # 6bb38 <stage>
   10230:	fff7869b          	addiw	a3,a5,-1
   10234:	c054                	sw	a3,4(s0)
   10236:	87b6                	mv	a5,a3
   10238:	e29d                	bnez	a3,1025e <abort+0xae>
   1023a:	00043423          	sd	zero,8(s0)
   1023e:	0f50000f          	fence	iorw,ow
   10242:	08f427af          	amoswap.w	a5,a5,(s0)
   10246:	2781                	sext.w	a5,a5
   10248:	00f75b63          	bge	a4,a5,1025e <abort+0xae>
   1024c:	06200893          	li	a7,98
   10250:	11818513          	addi	a0,gp,280 # 6c228 <lock>
   10254:	08100593          	li	a1,129
   10258:	4605                	li	a2,1
   1025a:	00000073          	ecall
   1025e:	4519                	li	a0,6
   10260:	54b030ef          	jal	ra,13faa <raise>
   10264:	641c                	ld	a5,8(s0)
   10266:	8f020993          	addi	s3,tp,-1808 # fffffffffffff8f0 <__BSS_END__+0xfffffffffff92878>
   1026a:	03378163          	beq	a5,s3,1028c <abort+0xdc>
   1026e:	4705                	li	a4,1
   10270:	100427af          	lr.w	a5,(s0)
   10274:	e781                	bnez	a5,1027c <abort+0xcc>
   10276:	1ce426af          	sc.w.aq	a3,a4,(s0)
   1027a:	fafd                	bnez	a3,10270 <abort+0xc0>
   1027c:	2781                	sext.w	a5,a5
   1027e:	c789                	beqz	a5,10288 <abort+0xd8>
   10280:	11818513          	addi	a0,gp,280 # 6c228 <lock>
   10284:	302110ef          	jal	ra,21586 <__lll_lock_wait_private>
   10288:	01343423          	sd	s3,8(s0)
   1028c:	405c                	lw	a5,4(s0)
   1028e:	2785                	addiw	a5,a5,1
   10290:	c05c                	sw	a5,4(s0)
   10292:	a021                	j	1029a <abort+0xea>
   10294:	4789                	li	a5,2
   10296:	02f71b63          	bne	a4,a5,102cc <abort+0x11c>
   1029a:	0138                	addi	a4,sp,136
   1029c:	478d                	li	a5,3
   1029e:	853a                	mv	a0,a4
   102a0:	09800613          	li	a2,152
   102a4:	4581                	li	a1,0
   102a6:	a2f1a423          	sw	a5,-1496(gp) # 6bb38 <stage>
   102aa:	0760f0ef          	jal	ra,1f320 <memset>
   102ae:	872a                	mv	a4,a0
   102b0:	023c                	addi	a5,sp,264
   102b2:	56fd                	li	a3,-1
   102b4:	00f70563          	beq	a4,a5,102be <abort+0x10e>
   102b8:	e394                	sd	a3,0(a5)
   102ba:	17e1                	addi	a5,a5,-8
   102bc:	bfe5                	j	102b4 <abort+0x104>
   102be:	4601                	li	a2,0
   102c0:	85ba                	mv	a1,a4
   102c2:	4519                	li	a0,6
   102c4:	10012823          	sw	zero,272(sp)
   102c8:	039190ef          	jal	ra,29b00 <__sigaction>
   102cc:	a281a703          	lw	a4,-1496(gp) # 6bb38 <stage>
   102d0:	478d                	li	a5,3
   102d2:	00f71863          	bne	a4,a5,102e2 <abort+0x132>
   102d6:	4791                	li	a5,4
   102d8:	4519                	li	a0,6
   102da:	a2f1a423          	sw	a5,-1496(gp) # 6bb38 <stage>
   102de:	4cd030ef          	jal	ra,13faa <raise>
   102e2:	a281a783          	lw	a5,-1496(gp) # 6bb38 <stage>
   102e6:	4711                	li	a4,4
   102e8:	00e79663          	bne	a5,a4,102f4 <abort+0x144>
   102ec:	4795                	li	a5,5
   102ee:	a2f1a423          	sw	a5,-1496(gp) # 6bb38 <stage>
   102f2:	9002                	ebreak
   102f4:	4715                	li	a4,5
   102f6:	00e79963          	bne	a5,a4,10308 <abort+0x158>
   102fa:	4799                	li	a5,6
   102fc:	07f00513          	li	a0,127
   10300:	a2f1a423          	sw	a5,-1496(gp) # 6bb38 <stage>
   10304:	3270f0ef          	jal	ra,1fe2a <_exit>
   10308:	9002                	ebreak

000000000001030a <_dl_start>:
   1030a:	1141                	addi	sp,sp,-16
   1030c:	e406                	sd	ra,8(sp)
   1030e:	ea3ff0ef          	jal	ra,101b0 <abort>

0000000000010312 <fini>:
   10312:	66018513          	addi	a0,gp,1632 # 6c770 <last_result+0x18>
   10316:	1763106f          	j	4148c <check_free.isra.0>
	...

000000000001031c <_start>:
   1031c:	02e000ef          	jal	ra,1034a <_start+0x2e>
   10320:	87aa                	mv	a5,a0
   10322:	00000517          	auipc	a0,0x0
   10326:	0e250513          	addi	a0,a0,226 # 10404 <main>
   1032a:	6582                	ld	a1,0(sp)
   1032c:	0030                	addi	a2,sp,8
   1032e:	ff017113          	andi	sp,sp,-16
   10332:	00000697          	auipc	a3,0x0
   10336:	5da68693          	addi	a3,a3,1498 # 1090c <__libc_csu_init>
   1033a:	00000717          	auipc	a4,0x0
   1033e:	66270713          	addi	a4,a4,1634 # 1099c <__libc_csu_fini>
   10342:	880a                	mv	a6,sp
   10344:	0fc000ef          	jal	ra,10440 <__libc_start_main>
   10348:	9002                	ebreak
   1034a:	0005c197          	auipc	gp,0x5c
   1034e:	dc618193          	addi	gp,gp,-570 # 6c110 <__global_pointer$>
   10352:	8082                	ret
	...

0000000000010356 <deregister_tm_clones>:
   10356:	0006c537          	lui	a0,0x6c
   1035a:	0006c737          	lui	a4,0x6c
   1035e:	8d850793          	addi	a5,a0,-1832 # 6b8d8 <__TMC_END__>
   10362:	8d870713          	addi	a4,a4,-1832 # 6b8d8 <__TMC_END__>
   10366:	00f70963          	beq	a4,a5,10378 <deregister_tm_clones+0x22>
   1036a:	00000313          	li	t1,0
   1036e:	00030563          	beqz	t1,10378 <deregister_tm_clones+0x22>
   10372:	8d850513          	addi	a0,a0,-1832
   10376:	8302                	jr	t1
   10378:	8082                	ret

000000000001037a <register_tm_clones>:
   1037a:	0006c537          	lui	a0,0x6c
   1037e:	8d850593          	addi	a1,a0,-1832 # 6b8d8 <__TMC_END__>
   10382:	0006c7b7          	lui	a5,0x6c
   10386:	8d878793          	addi	a5,a5,-1832 # 6b8d8 <__TMC_END__>
   1038a:	8f8d                	sub	a5,a5,a1
   1038c:	4037d713          	srai	a4,a5,0x3
   10390:	03f7d593          	srli	a1,a5,0x3f
   10394:	95ba                	add	a1,a1,a4
   10396:	8585                	srai	a1,a1,0x1
   10398:	c981                	beqz	a1,103a8 <register_tm_clones+0x2e>
   1039a:	00000313          	li	t1,0
   1039e:	00030563          	beqz	t1,103a8 <register_tm_clones+0x2e>
   103a2:	8d850513          	addi	a0,a0,-1832
   103a6:	8302                	jr	t1
   103a8:	8082                	ret

00000000000103aa <__do_global_dtors_aux>:
   103aa:	1141                	addi	sp,sp,-16
   103ac:	e022                	sd	s0,0(sp)
   103ae:	c181c783          	lbu	a5,-1000(gp) # 6bd28 <completed.5572>
   103b2:	e406                	sd	ra,8(sp)
   103b4:	e38d                	bnez	a5,103d6 <__do_global_dtors_aux+0x2c>
   103b6:	fa1ff0ef          	jal	ra,10356 <deregister_tm_clones>
   103ba:	0004a7b7          	lui	a5,0x4a
   103be:	2be78793          	addi	a5,a5,702 # 4a2be <__deregister_frame_info>
   103c2:	c799                	beqz	a5,103d0 <__do_global_dtors_aux+0x26>
   103c4:	00065537          	lui	a0,0x65
   103c8:	77850513          	addi	a0,a0,1912 # 65778 <__EH_FRAME_BEGIN__>
   103cc:	6f3390ef          	jal	ra,4a2be <__deregister_frame_info>
   103d0:	4785                	li	a5,1
   103d2:	c0f18c23          	sb	a5,-1000(gp) # 6bd28 <completed.5572>
   103d6:	60a2                	ld	ra,8(sp)
   103d8:	6402                	ld	s0,0(sp)
   103da:	0141                	addi	sp,sp,16
   103dc:	8082                	ret

00000000000103de <frame_dummy>:
   103de:	0004a7b7          	lui	a5,0x4a
   103e2:	10a78793          	addi	a5,a5,266 # 4a10a <__register_frame_info>
   103e6:	cf91                	beqz	a5,10402 <frame_dummy+0x24>
   103e8:	00065537          	lui	a0,0x65
   103ec:	1141                	addi	sp,sp,-16
   103ee:	c2018593          	addi	a1,gp,-992 # 6bd30 <object.5577>
   103f2:	77850513          	addi	a0,a0,1912 # 65778 <__EH_FRAME_BEGIN__>
   103f6:	e406                	sd	ra,8(sp)
   103f8:	513390ef          	jal	ra,4a10a <__register_frame_info>
   103fc:	60a2                	ld	ra,8(sp)
   103fe:	0141                	addi	sp,sp,16
   10400:	bfad                	j	1037a <register_tm_clones>
   10402:	bfa5                	j	1037a <register_tm_clones>

0000000000010404 <main>:
   10404:	1101                	addi	sp,sp,-32
   10406:	ec06                	sd	ra,24(sp)
   10408:	e822                	sd	s0,16(sp)
   1040a:	1000                	addi	s0,sp,32
   1040c:	4795                	li	a5,5
   1040e:	fef42623          	sw	a5,-20(s0)
   10412:	4789                	li	a5,2
   10414:	fef42423          	sw	a5,-24(s0)
   10418:	fec42783          	lw	a5,-20(s0)
   1041c:	fe842703          	lw	a4,-24(s0)
   10420:	06e787b3          	test	a5,a5,a4
   10424:	fef42223          	sw	a5,-28(s0)
   10428:	0004b7b7          	lui	a5,0x4b
   1042c:	07078513          	addi	a0,a5,112 # 4b070 <free_mem+0x64>
   10430:	02a050ef          	jal	ra,1545a <_IO_puts>
   10434:	4781                	li	a5,0
   10436:	853e                	mv	a0,a5
   10438:	60e2                	ld	ra,24(sp)
   1043a:	6442                	ld	s0,16(sp)
   1043c:	6105                	addi	sp,sp,32
   1043e:	8082                	ret

0000000000010440 <__libc_start_main>:
   10440:	7129                	addi	sp,sp,-320
   10442:	fa22                	sd	s0,304(sp)
   10444:	f626                	sd	s1,296(sp)
   10446:	f24a                	sd	s2,288(sp)
   10448:	e832                	sd	a2,16(sp)
   1044a:	fe06                	sd	ra,312(sp)
   1044c:	00000313          	li	t1,0
   10450:	ec2a                	sd	a0,24(sp)
   10452:	e42e                	sd	a1,8(sp)
   10454:	8436                	mv	s0,a3
   10456:	84ba                	mv	s1,a4
   10458:	893e                	mv	s2,a5
   1045a:	4601                	li	a2,0
   1045c:	00030663          	beqz	t1,10468 <__libc_start_main+0x28>
   10460:	00002603          	lw	a2,0(zero) # 0 <_nl_current_LC_CTYPE>
   10464:	00163613          	seqz	a2,a2
   10468:	67a2                	ld	a5,8(sp)
   1046a:	00178513          	addi	a0,a5,1
   1046e:	67c2                	ld	a5,16(sp)
   10470:	050e                	slli	a0,a0,0x3
   10472:	953e                	add	a0,a0,a5
   10474:	94c1a023          	sw	a2,-1728(gp) # 6ba50 <__libc_multiple_libcs>
   10478:	aaa1bc23          	sd	a0,-1352(gp) # 6bbc8 <__environ>
   1047c:	0006a7b7          	lui	a5,0x6a
   10480:	fb07b823          	sd	a6,-80(a5) # 69fb0 <__libc_stack_end>
   10484:	6110                	ld	a2,0(a0)
   10486:	0521                	addi	a0,a0,8
   10488:	fe75                	bnez	a2,10484 <__libc_start_main+0x44>
   1048a:	6ea110ef          	jal	ra,21b74 <_dl_aux_init>
   1048e:	0006d7b7          	lui	a5,0x6d
   10492:	f287b703          	ld	a4,-216(a5) # 6cf28 <_dl_phdr>
   10496:	14070063          	beqz	a4,105d6 <__libc_start_main+0x196>
   1049a:	655110ef          	jal	ra,222ee <__libc_init_secure>
   1049e:	ab81b503          	ld	a0,-1352(gp) # 6bbc8 <__environ>
   104a2:	314110ef          	jal	ra,217b6 <__tunables_init>
   104a6:	298000ef          	jal	ra,1073e <__libc_setup_tls>
   104aa:	0006a7b7          	lui	a5,0x6a
   104ae:	fa07b783          	ld	a5,-96(a5) # 69fa0 <_dl_random>
   104b2:	9401a883          	lw	a7,-1728(gp) # 6ba50 <__libc_multiple_libcs>
   104b6:	0017c803          	lbu	a6,1(a5)
   104ba:	0007c703          	lbu	a4,0(a5)
   104be:	0027c503          	lbu	a0,2(a5)
   104c2:	0037c583          	lbu	a1,3(a5)
   104c6:	0047c603          	lbu	a2,4(a5)
   104ca:	0822                	slli	a6,a6,0x8
   104cc:	0057c683          	lbu	a3,5(a5)
   104d0:	00e86833          	or	a6,a6,a4
   104d4:	0542                	slli	a0,a0,0x10
   104d6:	0067c703          	lbu	a4,6(a5)
   104da:	01056533          	or	a0,a0,a6
   104de:	05e2                	slli	a1,a1,0x18
   104e0:	0077c783          	lbu	a5,7(a5)
   104e4:	8dc9                	or	a1,a1,a0
   104e6:	1602                	slli	a2,a2,0x20
   104e8:	8e4d                	or	a2,a2,a1
   104ea:	16a2                	slli	a3,a3,0x28
   104ec:	8ed1                	or	a3,a3,a2
   104ee:	1742                	slli	a4,a4,0x30
   104f0:	8f55                	or	a4,a4,a3
   104f2:	17e2                	slli	a5,a5,0x38
   104f4:	8fd9                	or	a5,a5,a4
   104f6:	f007f793          	andi	a5,a5,-256
   104fa:	0006a737          	lui	a4,0x6a
   104fe:	b6f73423          	sd	a5,-1176(a4) # 69b68 <__stack_chk_guard>
   10502:	10088f63          	beqz	a7,10620 <__libc_start_main+0x1e0>
   10506:	00000793          	li	a5,0
   1050a:	c789                	beqz	a5,10514 <__libc_start_main+0xd4>
   1050c:	00000097          	auipc	ra,0x0
   10510:	000000e7          	jalr	zero # 0 <_nl_current_LC_CTYPE>
   10514:	0006a7b7          	lui	a5,0x6a
   10518:	fa07b783          	ld	a5,-96(a5) # 69fa0 <_dl_random>
   1051c:	00e7c703          	lbu	a4,14(a5)
   10520:	0087c883          	lbu	a7,8(a5)
   10524:	0097c803          	lbu	a6,9(a5)
   10528:	00a7c503          	lbu	a0,10(a5)
   1052c:	00b7c583          	lbu	a1,11(a5)
   10530:	00c7c603          	lbu	a2,12(a5)
   10534:	00d7c683          	lbu	a3,13(a5)
   10538:	00f7c783          	lbu	a5,15(a5)
   1053c:	03110423          	sb	a7,40(sp)
   10540:	030104a3          	sb	a6,41(sp)
   10544:	02f107a3          	sb	a5,47(sp)
   10548:	02a10523          	sb	a0,42(sp)
   1054c:	02b105a3          	sb	a1,43(sp)
   10550:	02c10623          	sb	a2,44(sp)
   10554:	02d106a3          	sb	a3,45(sp)
   10558:	02e10723          	sb	a4,46(sp)
   1055c:	7722                	ld	a4,40(sp)
   1055e:	0006a7b7          	lui	a5,0x6a
   10562:	b6e7b823          	sd	a4,-1168(a5) # 69b70 <__pointer_chk_guard_local>
   10566:	00090763          	beqz	s2,10574 <__libc_start_main+0x134>
   1056a:	4601                	li	a2,0
   1056c:	4581                	li	a1,0
   1056e:	854a                	mv	a0,s2
   10570:	3a6040ef          	jal	ra,14916 <__cxa_atexit>
   10574:	ab81b603          	ld	a2,-1352(gp) # 6bbc8 <__environ>
   10578:	65c2                	ld	a1,16(sp)
   1057a:	6522                	ld	a0,8(sp)
   1057c:	6e3110ef          	jal	ra,2245e <__libc_init_first>
   10580:	c491                	beqz	s1,1058c <__libc_start_main+0x14c>
   10582:	4601                	li	a2,0
   10584:	4581                	li	a1,0
   10586:	8526                	mv	a0,s1
   10588:	38e040ef          	jal	ra,14916 <__cxa_atexit>
   1058c:	0006a7b7          	lui	a5,0x6a
   10590:	fb87a783          	lw	a5,-72(a5) # 69fb8 <__libc_enable_secure>
   10594:	0e079763          	bnez	a5,10682 <__libc_start_main+0x242>
   10598:	c411                	beqz	s0,105a4 <__libc_start_main+0x164>
   1059a:	ab81b603          	ld	a2,-1352(gp) # 6bbc8 <__environ>
   1059e:	65c2                	ld	a1,16(sp)
   105a0:	6522                	ld	a0,8(sp)
   105a2:	9402                	jalr	s0
   105a4:	4581                	li	a1,0
   105a6:	4501                	li	a0,0
   105a8:	104110ef          	jal	ra,216ac <_dl_debug_initialize>
   105ac:	1028                	addi	a0,sp,40
   105ae:	15b030ef          	jal	ra,13f08 <_setjmp>
   105b2:	e15d                	bnez	a0,10658 <__libc_start_main+0x218>
   105b4:	9f023683          	ld	a3,-1552(tp) # fffffffffffff9f0 <__BSS_END__+0xfffffffffff92978>
   105b8:	9e823703          	ld	a4,-1560(tp) # fffffffffffff9e8 <__BSS_END__+0xfffffffffff92970>
   105bc:	ab81b603          	ld	a2,-1352(gp) # 6bbc8 <__environ>
   105c0:	65c2                	ld	a1,16(sp)
   105c2:	6522                	ld	a0,8(sp)
   105c4:	67e2                	ld	a5,24(sp)
   105c6:	e63a                	sd	a4,264(sp)
   105c8:	e236                	sd	a3,256(sp)
   105ca:	1038                	addi	a4,sp,40
   105cc:	9ee23823          	sd	a4,-1552(tp) # fffffffffffff9f0 <__BSS_END__+0xfffffffffff92978>
   105d0:	9782                	jalr	a5
   105d2:	1aa040ef          	jal	ra,1477c <exit>
   105d6:	00000713          	li	a4,0
   105da:	ec0700e3          	beqz	a4,1049a <__libc_start_main+0x5a>
   105de:	03675683          	lhu	a3,54(a4)
   105e2:	03800613          	li	a2,56
   105e6:	02c68263          	beq	a3,a2,1060a <__libc_start_main+0x1ca>
   105ea:	0004b6b7          	lui	a3,0x4b
   105ee:	0004b5b7          	lui	a1,0x4b
   105f2:	0004b537          	lui	a0,0x4b
   105f6:	10068693          	addi	a3,a3,256 # 4b100 <__PRETTY_FUNCTION__.10838>
   105fa:	0b400613          	li	a2,180
   105fe:	08058593          	addi	a1,a1,128 # 4b080 <free_mem+0x74>
   10602:	09050513          	addi	a0,a0,144 # 4b090 <free_mem+0x84>
   10606:	4ce000ef          	jal	ra,10ad4 <__assert_fail>
   1060a:	7314                	ld	a3,32(a4)
   1060c:	03875603          	lhu	a2,56(a4)
   10610:	9736                	add	a4,a4,a3
   10612:	f2e7b423          	sd	a4,-216(a5)
   10616:	0006d7b7          	lui	a5,0x6d
   1061a:	f6c7b023          	sd	a2,-160(a5) # 6cf60 <_dl_phnum>
   1061e:	bdb5                	j	1049a <__libc_start_main+0x5a>
   10620:	54f110ef          	jal	ra,2236e <_dl_discover_osversion>
   10624:	87aa                	mv	a5,a0
   10626:	06054463          	bltz	a0,1068e <__libc_start_main+0x24e>
   1062a:	0006d737          	lui	a4,0x6d
   1062e:	f8072683          	lw	a3,-128(a4) # 6cf80 <_dl_osversion>
   10632:	0005071b          	sext.w	a4,a0
   10636:	eaa9                	bnez	a3,10688 <__libc_start_main+0x248>
   10638:	0006d6b7          	lui	a3,0x6d
   1063c:	f8e6a023          	sw	a4,-128(a3) # 6cf80 <_dl_osversion>
   10640:	00041737          	lui	a4,0x41
   10644:	eff70713          	addi	a4,a4,-257 # 40eff <__printf_fphex+0xf3f>
   10648:	eaf74fe3          	blt	a4,a5,10506 <__libc_start_main+0xc6>
   1064c:	0004b537          	lui	a0,0x4b
   10650:	0c050513          	addi	a0,a0,192 # 4b0c0 <free_mem+0xb4>
   10654:	23a060ef          	jal	ra,1688e <__libc_fatal>
   10658:	00000097          	auipc	ra,0x0
   1065c:	000000e7          	jalr	zero # 0 <_nl_current_LC_CTYPE>
   10660:	56fd                	li	a3,-1
   10662:	00000713          	li	a4,0
   10666:	04d727af          	amoadd.w.aq	a5,a3,(a4)
   1066a:	2781                	sext.w	a5,a5
   1066c:	4705                	li	a4,1
   1066e:	00e78863          	beq	a5,a4,1067e <__libc_start_main+0x23e>
   10672:	05d00893          	li	a7,93
   10676:	4501                	li	a0,0
   10678:	00000073          	ecall
   1067c:	bfdd                	j	10672 <__libc_start_main+0x232>
   1067e:	4501                	li	a0,0
   10680:	bf89                	j	105d2 <__libc_start_main+0x192>
   10682:	096000ef          	jal	ra,10718 <__libc_check_standard_fds>
   10686:	bf09                	j	10598 <__libc_start_main+0x158>
   10688:	fad77ce3          	bgeu	a4,a3,10640 <__libc_start_main+0x200>
   1068c:	b775                	j	10638 <__libc_start_main+0x1f8>
   1068e:	0004b537          	lui	a0,0x4b
   10692:	0d850513          	addi	a0,a0,216 # 4b0d8 <free_mem+0xcc>
   10696:	1f8060ef          	jal	ra,1688e <__libc_fatal>

000000000001069a <check_one_fd>:
   1069a:	7135                	addi	sp,sp,-160
   1069c:	e922                	sd	s0,144(sp)
   1069e:	842e                	mv	s0,a1
   106a0:	4585                	li	a1,1
   106a2:	e526                	sd	s1,136(sp)
   106a4:	ed06                	sd	ra,152(sp)
   106a6:	e14a                	sd	s2,128(sp)
   106a8:	84aa                	mv	s1,a0
   106aa:	068100ef          	jal	ra,20712 <__fcntl64_nocancel>
   106ae:	57fd                	li	a5,-1
   106b0:	00f50863          	beq	a0,a5,106c0 <check_one_fd+0x26>
   106b4:	60ea                	ld	ra,152(sp)
   106b6:	644a                	ld	s0,144(sp)
   106b8:	64aa                	ld	s1,136(sp)
   106ba:	690a                	ld	s2,128(sp)
   106bc:	610d                	addi	sp,sp,160
   106be:	8082                	ret
   106c0:	02022703          	lw	a4,32(tp) # 20 <__libc_errno>
   106c4:	47a5                	li	a5,9
   106c6:	fef717e3          	bne	a4,a5,106b4 <check_one_fd+0x1a>
   106ca:	000207b7          	lui	a5,0x20
   106ce:	02f41e63          	bne	s0,a5,1070a <check_one_fd+0x70>
   106d2:	0004b537          	lui	a0,0x4b
   106d6:	10300913          	li	s2,259
   106da:	12850513          	addi	a0,a0,296 # 4b128 <__PRETTY_FUNCTION__.10838+0x28>
   106de:	4601                	li	a2,0
   106e0:	85a2                	mv	a1,s0
   106e2:	04e100ef          	jal	ra,20730 <__open64_nocancel>
   106e6:	02a49163          	bne	s1,a0,10708 <check_one_fd+0x6e>
   106ea:	860a                	mv	a2,sp
   106ec:	85a6                	mv	a1,s1
   106ee:	4501                	li	a0,0
   106f0:	1ed0f0ef          	jal	ra,200dc <__fxstat>
   106f4:	e911                	bnez	a0,10708 <check_one_fd+0x6e>
   106f6:	47c2                	lw	a5,16(sp)
   106f8:	66bd                	lui	a3,0xf
   106fa:	6709                	lui	a4,0x2
   106fc:	8ff5                	and	a5,a5,a3
   106fe:	00e79563          	bne	a5,a4,10708 <check_one_fd+0x6e>
   10702:	7782                	ld	a5,32(sp)
   10704:	fb2788e3          	beq	a5,s2,106b4 <check_one_fd+0x1a>
   10708:	9002                	ebreak
   1070a:	0004b537          	lui	a0,0x4b
   1070e:	10700913          	li	s2,263
   10712:	11850513          	addi	a0,a0,280 # 4b118 <__PRETTY_FUNCTION__.10838+0x18>
   10716:	b7e1                	j	106de <check_one_fd+0x44>

0000000000010718 <__libc_check_standard_fds>:
   10718:	000205b7          	lui	a1,0x20
   1071c:	1141                	addi	sp,sp,-16
   1071e:	0585                	addi	a1,a1,1
   10720:	4501                	li	a0,0
   10722:	e406                	sd	ra,8(sp)
   10724:	f77ff0ef          	jal	ra,1069a <check_one_fd>
   10728:	000205b7          	lui	a1,0x20
   1072c:	4505                	li	a0,1
   1072e:	f6dff0ef          	jal	ra,1069a <check_one_fd>
   10732:	60a2                	ld	ra,8(sp)
   10734:	000205b7          	lui	a1,0x20
   10738:	4509                	li	a0,2
   1073a:	0141                	addi	sp,sp,16
   1073c:	bfb9                	j	1069a <check_one_fd>

000000000001073e <__libc_setup_tls>:
   1073e:	7119                	addi	sp,sp,-128
   10740:	0006d7b7          	lui	a5,0x6d
   10744:	f8a2                	sd	s0,112(sp)
   10746:	f287b403          	ld	s0,-216(a5) # 6cf28 <_dl_phdr>
   1074a:	ecce                	sd	s3,88(sp)
   1074c:	0006b7b7          	lui	a5,0x6b
   10750:	fc86                	sd	ra,120(sp)
   10752:	f4a6                	sd	s1,104(sp)
   10754:	f0ca                	sd	s2,96(sp)
   10756:	e8d2                	sd	s4,80(sp)
   10758:	e4d6                	sd	s5,72(sp)
   1075a:	e0da                	sd	s6,64(sp)
   1075c:	fc5e                	sd	s7,56(sp)
   1075e:	f862                	sd	s8,48(sp)
   10760:	f466                	sd	s9,40(sp)
   10762:	f06a                	sd	s10,32(sp)
   10764:	ec6e                	sd	s11,24(sp)
   10766:	4187b983          	ld	s3,1048(a5) # 6b418 <_dl_ns>
   1076a:	16040863          	beqz	s0,108da <__libc_setup_tls+0x19c>
   1076e:	0006d7b7          	lui	a5,0x6d
   10772:	f607b783          	ld	a5,-160(a5) # 6cf60 <_dl_phnum>
   10776:	00379713          	slli	a4,a5,0x3
   1077a:	8f1d                	sub	a4,a4,a5
   1077c:	070e                	slli	a4,a4,0x3
   1077e:	9722                	add	a4,a4,s0
   10780:	14e47163          	bgeu	s0,a4,108c2 <__libc_setup_tls+0x184>
   10784:	469d                	li	a3,7
   10786:	a029                	j	10790 <__libc_setup_tls+0x52>
   10788:	03840413          	addi	s0,s0,56
   1078c:	12e47b63          	bgeu	s0,a4,108c2 <__libc_setup_tls+0x184>
   10790:	401c                	lw	a5,0(s0)
   10792:	fed79be3          	bne	a5,a3,10788 <__libc_setup_tls+0x4a>
   10796:	03043a83          	ld	s5,48(s0)
   1079a:	0009b583          	ld	a1,0(s3)
   1079e:	6818                	ld	a4,16(s0)
   107a0:	47c1                	li	a5,16
   107a2:	02843d03          	ld	s10,40(s0)
   107a6:	02043a03          	ld	s4,32(s0)
   107aa:	8c56                	mv	s8,s5
   107ac:	00e58433          	add	s0,a1,a4
   107b0:	10fae263          	bltu	s5,a5,108b4 <__libc_setup_tls+0x176>
   107b4:	fffc0713          	addi	a4,s8,-1
   107b8:	8cd6                	mv	s9,s5
   107ba:	0e0a8b63          	beqz	s5,108b0 <__libc_setup_tls+0x172>
   107be:	41800db3          	neg	s11,s8
   107c2:	120a8763          	beqz	s5,108f0 <__libc_setup_tls+0x1b2>
   107c6:	fffa8913          	addi	s2,s5,-1
   107ca:	039957b3          	divu	a5,s2,s9
   107ce:	996a                	add	s2,s2,s10
   107d0:	03978bb3          	mul	s7,a5,s9
   107d4:	87de                	mv	a5,s7
   107d6:	8501b503          	ld	a0,-1968(gp) # 6b960 <_dl_tls_static_size>
   107da:	e43e                	sd	a5,8(sp)
   107dc:	e03a                	sd	a4,0(sp)
   107de:	71050513          	addi	a0,a0,1808
   107e2:	956a                	add	a0,a0,s10
   107e4:	9562                	add	a0,a0,s8
   107e6:	955e                	add	a0,a0,s7
   107e8:	072100ef          	jal	ra,2085a <__sbrk>
   107ec:	03995933          	divu	s2,s2,s9
   107f0:	6702                	ld	a4,0(sp)
   107f2:	67a2                	ld	a5,8(sp)
   107f4:	71050493          	addi	s1,a0,1808
   107f8:	94ba                	add	s1,s1,a4
   107fa:	01b4f4b3          	and	s1,s1,s11
   107fe:	0006d737          	lui	a4,0x6d
   10802:	a6870713          	addi	a4,a4,-1432 # 6ca68 <_dl_static_dtv>
   10806:	01748533          	add	a0,s1,s7
   1080a:	42f9bc23          	sd	a5,1080(s3)
   1080e:	03e00793          	li	a5,62
   10812:	8652                	mv	a2,s4
   10814:	e31c                	sd	a5,0(a4)
   10816:	85a2                	mv	a1,s0
   10818:	f308                	sd	a0,32(a4)
   1081a:	02073423          	sd	zero,40(a4)
   1081e:	4250e0ef          	jal	ra,1f442 <memcpy>
   10822:	0006d7b7          	lui	a5,0x6d
   10826:	a7878793          	addi	a5,a5,-1416 # 6ca78 <_dl_static_dtv+0x10>
   1082a:	8501b703          	ld	a4,-1968(gp) # 6b960 <_dl_tls_static_size>
   1082e:	c5018693          	addi	a3,gp,-944 # 6bd60 <static_slotinfo>
   10832:	fef4b823          	sd	a5,-16(s1)
   10836:	04000613          	li	a2,64
   1083a:	4785                	li	a5,1
   1083c:	e290                	sd	a2,0(a3)
   1083e:	0006d637          	lui	a2,0x6d
   10842:	a6f63023          	sd	a5,-1440(a2) # 6ca60 <_dl_tls_max_dtv_idx>
   10846:	0006d637          	lui	a2,0x6d
   1084a:	0336b423          	sd	s3,40(a3) # f028 <catch_hook+0xefd0>
   1084e:	e6d63423          	sd	a3,-408(a2) # 6ce68 <_dl_tls_dtv_slotinfo_list>
   10852:	0006d6b7          	lui	a3,0x6d
   10856:	a586bc23          	sd	s8,-1448(a3) # 6ca58 <_dl_tls_static_align>
   1085a:	0006d6b7          	lui	a3,0x6d
   1085e:	44f9b023          	sd	a5,1088(s3)
   10862:	e8f6b023          	sd	a5,-384(a3) # 6ce80 <_dl_tls_static_nelem>
   10866:	073d                	addi	a4,a4,15
   10868:	4089b823          	sd	s0,1040(s3)
   1086c:	70e6                	ld	ra,120(sp)
   1086e:	7446                	ld	s0,112(sp)
   10870:	4359b423          	sd	s5,1064(s3)
   10874:	43a9b023          	sd	s10,1056(s3)
   10878:	4149bc23          	sd	s4,1048(s3)
   1087c:	6aa6                	ld	s5,72(sp)
   1087e:	69e6                	ld	s3,88(sp)
   10880:	6a46                	ld	s4,80(sp)
   10882:	7c42                	ld	s8,48(sp)
   10884:	7d02                	ld	s10,32(sp)
   10886:	6de2                	ld	s11,24(sp)
   10888:	8226                	mv	tp,s1
   1088a:	74a6                	ld	s1,104(sp)
   1088c:	03990933          	mul	s2,s2,s9
   10890:	7ca2                	ld	s9,40(sp)
   10892:	017907b3          	add	a5,s2,s7
   10896:	973e                	add	a4,a4,a5
   10898:	9b41                	andi	a4,a4,-16
   1089a:	84e1b823          	sd	a4,-1968(gp) # 6b960 <_dl_tls_static_size>
   1089e:	0006d737          	lui	a4,0x6d
   108a2:	a4f73823          	sd	a5,-1456(a4) # 6ca50 <_dl_tls_static_used>
   108a6:	7906                	ld	s2,96(sp)
   108a8:	6b06                	ld	s6,64(sp)
   108aa:	7be2                	ld	s7,56(sp)
   108ac:	6109                	addi	sp,sp,128
   108ae:	8082                	ret
   108b0:	4c85                	li	s9,1
   108b2:	b731                	j	107be <__libc_setup_tls+0x80>
   108b4:	4c41                	li	s8,16
   108b6:	fffc0713          	addi	a4,s8,-1
   108ba:	8cd6                	mv	s9,s5
   108bc:	f00a91e3          	bnez	s5,107be <__libc_setup_tls+0x80>
   108c0:	bfc5                	j	108b0 <__libc_setup_tls+0x172>
   108c2:	4c85                	li	s9,1
   108c4:	4b81                	li	s7,0
   108c6:	4901                	li	s2,0
   108c8:	4781                	li	a5,0
   108ca:	5dc1                	li	s11,-16
   108cc:	473d                	li	a4,15
   108ce:	4c41                	li	s8,16
   108d0:	4a81                	li	s5,0
   108d2:	4401                	li	s0,0
   108d4:	4a01                	li	s4,0
   108d6:	4d01                	li	s10,0
   108d8:	bdfd                	j	107d6 <__libc_setup_tls+0x98>
   108da:	4c85                	li	s9,1
   108dc:	4b81                	li	s7,0
   108de:	4901                	li	s2,0
   108e0:	4781                	li	a5,0
   108e2:	5dc1                	li	s11,-16
   108e4:	473d                	li	a4,15
   108e6:	4c41                	li	s8,16
   108e8:	4a81                	li	s5,0
   108ea:	4a01                	li	s4,0
   108ec:	4d01                	li	s10,0
   108ee:	b5e5                	j	107d6 <__libc_setup_tls+0x98>
   108f0:	4b81                	li	s7,0
   108f2:	896a                	mv	s2,s10
   108f4:	4781                	li	a5,0
   108f6:	b5c5                	j	107d6 <__libc_setup_tls+0x98>

00000000000108f8 <__tls_get_addr>:
   108f8:	ff023703          	ld	a4,-16(tp) # fffffffffffffff0 <__BSS_END__+0xfffffffffff92f78>
   108fc:	651c                	ld	a5,8(a0)
   108fe:	6b08                	ld	a0,16(a4)
   10900:	6705                	lui	a4,0x1
   10902:	80070713          	addi	a4,a4,-2048 # 800 <catch_hook+0x7a8>
   10906:	97ba                	add	a5,a5,a4
   10908:	953e                	add	a0,a0,a5
   1090a:	8082                	ret

000000000001090c <__libc_csu_init>:
   1090c:	7139                	addi	sp,sp,-64
   1090e:	f822                	sd	s0,48(sp)
   10910:	e456                	sd	s5,8(sp)
   10912:	0006a437          	lui	s0,0x6a
   10916:	0006aab7          	lui	s5,0x6a
   1091a:	b4840793          	addi	a5,s0,-1208 # 69b48 <__preinit_array_start>
   1091e:	b50a8a93          	addi	s5,s5,-1200 # 69b50 <__frame_dummy_init_array_entry>
   10922:	40fa8ab3          	sub	s5,s5,a5
   10926:	f04a                	sd	s2,32(sp)
   10928:	ec4e                	sd	s3,24(sp)
   1092a:	e852                	sd	s4,16(sp)
   1092c:	fc06                	sd	ra,56(sp)
   1092e:	f426                	sd	s1,40(sp)
   10930:	403ada93          	srai	s5,s5,0x3
   10934:	892a                	mv	s2,a0
   10936:	89ae                	mv	s3,a1
   10938:	8a32                	mv	s4,a2
   1093a:	000a8e63          	beqz	s5,10956 <__libc_csu_init+0x4a>
   1093e:	b4840413          	addi	s0,s0,-1208
   10942:	4481                	li	s1,0
   10944:	601c                	ld	a5,0(s0)
   10946:	8652                	mv	a2,s4
   10948:	85ce                	mv	a1,s3
   1094a:	854a                	mv	a0,s2
   1094c:	0485                	addi	s1,s1,1
   1094e:	9782                	jalr	a5
   10950:	0421                	addi	s0,s0,8
   10952:	fe9a99e3          	bne	s5,s1,10944 <__libc_csu_init+0x38>
   10956:	0006a437          	lui	s0,0x6a
   1095a:	0006aab7          	lui	s5,0x6a
   1095e:	b5040793          	addi	a5,s0,-1200 # 69b50 <__frame_dummy_init_array_entry>
   10962:	b58a8a93          	addi	s5,s5,-1192 # 69b58 <__do_global_dtors_aux_fini_array_entry>
   10966:	40fa8ab3          	sub	s5,s5,a5
   1096a:	403ada93          	srai	s5,s5,0x3
   1096e:	000a8e63          	beqz	s5,1098a <__libc_csu_init+0x7e>
   10972:	b5040413          	addi	s0,s0,-1200
   10976:	4481                	li	s1,0
   10978:	601c                	ld	a5,0(s0)
   1097a:	8652                	mv	a2,s4
   1097c:	85ce                	mv	a1,s3
   1097e:	854a                	mv	a0,s2
   10980:	0485                	addi	s1,s1,1
   10982:	9782                	jalr	a5
   10984:	0421                	addi	s0,s0,8
   10986:	fe9a99e3          	bne	s5,s1,10978 <__libc_csu_init+0x6c>
   1098a:	70e2                	ld	ra,56(sp)
   1098c:	7442                	ld	s0,48(sp)
   1098e:	74a2                	ld	s1,40(sp)
   10990:	7902                	ld	s2,32(sp)
   10992:	69e2                	ld	s3,24(sp)
   10994:	6a42                	ld	s4,16(sp)
   10996:	6aa2                	ld	s5,8(sp)
   10998:	6121                	addi	sp,sp,64
   1099a:	8082                	ret

000000000001099c <__libc_csu_fini>:
   1099c:	1101                	addi	sp,sp,-32
   1099e:	e822                	sd	s0,16(sp)
   109a0:	0006a7b7          	lui	a5,0x6a
   109a4:	0006a437          	lui	s0,0x6a
   109a8:	b5840413          	addi	s0,s0,-1192 # 69b58 <__do_global_dtors_aux_fini_array_entry>
   109ac:	b6878793          	addi	a5,a5,-1176 # 69b68 <__stack_chk_guard>
   109b0:	8f81                	sub	a5,a5,s0
   109b2:	ec06                	sd	ra,24(sp)
   109b4:	e426                	sd	s1,8(sp)
   109b6:	e04a                	sd	s2,0(sp)
   109b8:	4037d713          	srai	a4,a5,0x3
   109bc:	cf01                	beqz	a4,109d4 <__libc_csu_fini+0x38>
   109be:	17e1                	addi	a5,a5,-8
   109c0:	fff70493          	addi	s1,a4,-1
   109c4:	943e                	add	s0,s0,a5
   109c6:	597d                	li	s2,-1
   109c8:	601c                	ld	a5,0(s0)
   109ca:	14fd                	addi	s1,s1,-1
   109cc:	1461                	addi	s0,s0,-8
   109ce:	9782                	jalr	a5
   109d0:	ff249ce3          	bne	s1,s2,109c8 <__libc_csu_fini+0x2c>
   109d4:	60e2                	ld	ra,24(sp)
   109d6:	6442                	ld	s0,16(sp)
   109d8:	64a2                	ld	s1,8(sp)
   109da:	6902                	ld	s2,0(sp)
   109dc:	6105                	addi	sp,sp,32
   109de:	8082                	ret

00000000000109e0 <__assert_fail_base>:
   109e0:	715d                	addi	sp,sp,-80
   109e2:	e0a2                	sd	s0,64(sp)
   109e4:	fc26                	sd	s1,56(sp)
   109e6:	f84a                	sd	s2,48(sp)
   109e8:	f44e                	sd	s3,40(sp)
   109ea:	f052                	sd	s4,32(sp)
   109ec:	e486                	sd	ra,72(sp)
   109ee:	00000793          	li	a5,0
   109f2:	84aa                	mv	s1,a0
   109f4:	8a2e                	mv	s4,a1
   109f6:	8932                	mv	s2,a2
   109f8:	89b6                	mv	s3,a3
   109fa:	843a                	mv	s0,a4
   109fc:	c799                	beqz	a5,10a0a <__assert_fail_base+0x2a>
   109fe:	4581                	li	a1,0
   10a00:	4505                	li	a0,1
   10a02:	00000097          	auipc	ra,0x0
   10a06:	000000e7          	jalr	zero # 0 <_nl_current_LC_CTYPE>
   10a0a:	8e01b603          	ld	a2,-1824(gp) # 6b9f0 <__progname>
   10a0e:	00064783          	lbu	a5,0(a2)
   10a12:	efc1                	bnez	a5,10aaa <__assert_fail_base+0xca>
   10a14:	0005d537          	lui	a0,0x5d
   10a18:	eb050693          	addi	a3,a0,-336 # 5ceb0 <expected2.10177+0x8>
   10a1c:	cc41                	beqz	s0,10ab4 <__assert_fail_base+0xd4>
   10a1e:	0004b8b7          	lui	a7,0x4b
   10a22:	13888893          	addi	a7,a7,312 # 4b138 <__PRETTY_FUNCTION__.10838+0x38>
   10a26:	085c                	addi	a5,sp,20
   10a28:	e43e                	sd	a5,8(sp)
   10a2a:	e052                	sd	s4,0(sp)
   10a2c:	8822                	mv	a6,s0
   10a2e:	87ce                	mv	a5,s3
   10a30:	874a                	mv	a4,s2
   10a32:	85a6                	mv	a1,s1
   10a34:	0828                	addi	a0,sp,24
   10a36:	3a6040ef          	jal	ra,14ddc <___asprintf>
   10a3a:	08054463          	bltz	a0,10ac2 <__assert_fail_base+0xe2>
   10a3e:	6662                	ld	a2,24(sp)
   10a40:	000615b7          	lui	a1,0x61
   10a44:	80858593          	addi	a1,a1,-2040 # 60808 <__sys_errlist_internal+0x448>
   10a48:	4501                	li	a0,0
   10a4a:	546040ef          	jal	ra,14f90 <__fxprintf>
   10a4e:	8881b503          	ld	a0,-1912(gp) # 6b998 <_IO_stderr>
   10a52:	7fe040ef          	jal	ra,15250 <_IO_fflush>
   10a56:	9081a703          	lw	a4,-1784(gp) # 6ba18 <_dl_pagesize>
   10a5a:	45d2                	lw	a1,20(sp)
   10a5c:	4781                	li	a5,0
   10a5e:	40e006bb          	negw	a3,a4
   10a62:	9db9                	addw	a1,a1,a4
   10a64:	8df5                	and	a1,a1,a3
   10a66:	2581                	sext.w	a1,a1
   10a68:	577d                	li	a4,-1
   10a6a:	02200693          	li	a3,34
   10a6e:	460d                	li	a2,3
   10a70:	4501                	li	a0,0
   10a72:	ca2e                	sw	a1,20(sp)
   10a74:	6a30f0ef          	jal	ra,20916 <__mmap64>
   10a78:	57fd                	li	a5,-1
   10a7a:	842a                	mv	s0,a0
   10a7c:	02f50263          	beq	a0,a5,10aa0 <__assert_fail_base+0xc0>
   10a80:	47d2                	lw	a5,20(sp)
   10a82:	65e2                	ld	a1,24(sp)
   10a84:	0511                	addi	a0,a0,4
   10a86:	c01c                	sw	a5,0(s0)
   10a88:	3a70d0ef          	jal	ra,1e62e <strcpy>
   10a8c:	8522                	mv	a0,s0
   10a8e:	a3018793          	addi	a5,gp,-1488 # 6bb40 <__abort_msg>
   10a92:	0ca7b52f          	amoswap.d.aq	a0,a0,(a5)
   10a96:	c509                	beqz	a0,10aa0 <__assert_fail_base+0xc0>
   10a98:	00056583          	lwu	a1,0(a0)
   10a9c:	6a90f0ef          	jal	ra,20944 <__munmap>
   10aa0:	6562                	ld	a0,24(sp)
   10aa2:	4e70c0ef          	jal	ra,1d788 <__free>
   10aa6:	f0aff0ef          	jal	ra,101b0 <abort>
   10aaa:	0004b537          	lui	a0,0x4b
   10aae:	13850693          	addi	a3,a0,312 # 4b138 <__PRETTY_FUNCTION__.10838+0x38>
   10ab2:	f435                	bnez	s0,10a1e <__assert_fail_base+0x3e>
   10ab4:	0005d8b7          	lui	a7,0x5d
   10ab8:	eb088413          	addi	s0,a7,-336 # 5ceb0 <expected2.10177+0x8>
   10abc:	eb088893          	addi	a7,a7,-336
   10ac0:	b79d                	j	10a26 <__assert_fail_base+0x46>
   10ac2:	0004b5b7          	lui	a1,0x4b
   10ac6:	4649                	li	a2,18
   10ac8:	17058593          	addi	a1,a1,368 # 4b170 <errstr.11076>
   10acc:	4509                	li	a0,2
   10ace:	7680f0ef          	jal	ra,20236 <__libc_write>
   10ad2:	bfd1                	j	10aa6 <__assert_fail_base+0xc6>

0000000000010ad4 <__assert_fail>:
   10ad4:	7179                	addi	sp,sp,-48
   10ad6:	f022                	sd	s0,32(sp)
   10ad8:	ec26                	sd	s1,24(sp)
   10ada:	842a                	mv	s0,a0
   10adc:	84ae                	mv	s1,a1
   10ade:	0004b5b7          	lui	a1,0x4b
   10ae2:	e84a                	sd	s2,16(sp)
   10ae4:	14058593          	addi	a1,a1,320 # 4b140 <__PRETTY_FUNCTION__.10838+0x40>
   10ae8:	8932                	mv	s2,a2
   10aea:	97018513          	addi	a0,gp,-1680 # 6ba80 <_libc_intl_domainname>
   10aee:	4615                	li	a2,5
   10af0:	e44e                	sd	s3,8(sp)
   10af2:	f406                	sd	ra,40(sp)
   10af4:	89b6                	mv	s3,a3
   10af6:	010000ef          	jal	ra,10b06 <__dcgettext>
   10afa:	874e                	mv	a4,s3
   10afc:	86ca                	mv	a3,s2
   10afe:	8626                	mv	a2,s1
   10b00:	85a2                	mv	a1,s0
   10b02:	edfff0ef          	jal	ra,109e0 <__assert_fail_base>

0000000000010b06 <__dcgettext>:
   10b06:	87b2                	mv	a5,a2
   10b08:	4701                	li	a4,0
   10b0a:	4681                	li	a3,0
   10b0c:	4601                	li	a2,0
   10b0e:	2310006f          	j	1153e <__dcigettext>

0000000000010b12 <plural_eval>:
   10b12:	7179                	addi	sp,sp,-48
   10b14:	f022                	sd	s0,32(sp)
   10b16:	842a                	mv	s0,a0
   10b18:	401c                	lw	a5,0(s0)
   10b1a:	ec26                	sd	s1,24(sp)
   10b1c:	e84a                	sd	s2,16(sp)
   10b1e:	e44e                	sd	s3,8(sp)
   10b20:	f406                	sd	ra,40(sp)
   10b22:	4909                	li	s2,2
   10b24:	84ae                	mv	s1,a1
   10b26:	498d                	li	s3,3
   10b28:	05278563          	beq	a5,s2,10b72 <plural_eval+0x60>
   10b2c:	02f94463          	blt	s2,a5,10b54 <plural_eval+0x42>
   10b30:	c3d1                	beqz	a5,10bb4 <plural_eval+0xa2>
   10b32:	4705                	li	a4,1
   10b34:	08e79663          	bne	a5,a4,10bc0 <plural_eval+0xae>
   10b38:	6408                	ld	a0,8(s0)
   10b3a:	85a6                	mv	a1,s1
   10b3c:	fd7ff0ef          	jal	ra,10b12 <plural_eval>
   10b40:	00153913          	seqz	s2,a0
   10b44:	70a2                	ld	ra,40(sp)
   10b46:	7402                	ld	s0,32(sp)
   10b48:	64e2                	ld	s1,24(sp)
   10b4a:	69a2                	ld	s3,8(sp)
   10b4c:	854a                	mv	a0,s2
   10b4e:	6942                	ld	s2,16(sp)
   10b50:	6145                	addi	sp,sp,48
   10b52:	8082                	ret
   10b54:	07379663          	bne	a5,s3,10bc0 <plural_eval+0xae>
   10b58:	6408                	ld	a0,8(s0)
   10b5a:	85a6                	mv	a1,s1
   10b5c:	fb7ff0ef          	jal	ra,10b12 <plural_eval>
   10b60:	00153513          	seqz	a0,a0
   10b64:	0505                	addi	a0,a0,1
   10b66:	050e                	slli	a0,a0,0x3
   10b68:	942a                	add	s0,s0,a0
   10b6a:	6400                	ld	s0,8(s0)
   10b6c:	401c                	lw	a5,0(s0)
   10b6e:	fb279fe3          	bne	a5,s2,10b2c <plural_eval+0x1a>
   10b72:	6408                	ld	a0,8(s0)
   10b74:	85a6                	mv	a1,s1
   10b76:	f9dff0ef          	jal	ra,10b12 <plural_eval>
   10b7a:	405c                	lw	a5,4(s0)
   10b7c:	473d                	li	a4,15
   10b7e:	892a                	mv	s2,a0
   10b80:	04e78c63          	beq	a5,a4,10bd8 <plural_eval+0xc6>
   10b84:	4739                	li	a4,14
   10b86:	04e78c63          	beq	a5,a4,10bde <plural_eval+0xcc>
   10b8a:	6808                	ld	a0,16(s0)
   10b8c:	85a6                	mv	a1,s1
   10b8e:	f85ff0ef          	jal	ra,10b12 <plural_eval>
   10b92:	405c                	lw	a5,4(s0)
   10b94:	4729                	li	a4,10
   10b96:	842a                	mv	s0,a0
   10b98:	37f5                	addiw	a5,a5,-3
   10b9a:	0007869b          	sext.w	a3,a5
   10b9e:	02d76163          	bltu	a4,a3,10bc0 <plural_eval+0xae>
   10ba2:	1782                	slli	a5,a5,0x20
   10ba4:	0004b737          	lui	a4,0x4b
   10ba8:	83f9                	srli	a5,a5,0x1e
   10baa:	18470713          	addi	a4,a4,388 # 4b184 <errstr.11076+0x14>
   10bae:	97ba                	add	a5,a5,a4
   10bb0:	439c                	lw	a5,0(a5)
   10bb2:	8782                	jr	a5
   10bb4:	405c                	lw	a5,4(s0)
   10bb6:	8926                	mv	s2,s1
   10bb8:	d7d1                	beqz	a5,10b44 <plural_eval+0x32>
   10bba:	4705                	li	a4,1
   10bbc:	00e78b63          	beq	a5,a4,10bd2 <plural_eval+0xc0>
   10bc0:	70a2                	ld	ra,40(sp)
   10bc2:	7402                	ld	s0,32(sp)
   10bc4:	4901                	li	s2,0
   10bc6:	64e2                	ld	s1,24(sp)
   10bc8:	69a2                	ld	s3,8(sp)
   10bca:	854a                	mv	a0,s2
   10bcc:	6942                	ld	s2,16(sp)
   10bce:	6145                	addi	sp,sp,48
   10bd0:	8082                	ret
   10bd2:	00843903          	ld	s2,8(s0)
   10bd6:	b7bd                	j	10b44 <plural_eval+0x32>
   10bd8:	c501                	beqz	a0,10be0 <plural_eval+0xce>
   10bda:	4905                	li	s2,1
   10bdc:	b7a5                	j	10b44 <plural_eval+0x32>
   10bde:	d13d                	beqz	a0,10b44 <plural_eval+0x32>
   10be0:	6808                	ld	a0,16(s0)
   10be2:	85a6                	mv	a1,s1
   10be4:	f2fff0ef          	jal	ra,10b12 <plural_eval>
   10be8:	00a03933          	snez	s2,a0
   10bec:	bfa1                	j	10b44 <plural_eval+0x32>
   10bee:	40a90933          	sub	s2,s2,a0
   10bf2:	01203933          	snez	s2,s2
   10bf6:	b7b9                	j	10b44 <plural_eval+0x32>
   10bf8:	c12d                	beqz	a0,10c5a <plural_eval+0x148>
   10bfa:	02895933          	divu	s2,s2,s0
   10bfe:	b799                	j	10b44 <plural_eval+0x32>
   10c00:	02a90933          	mul	s2,s2,a0
   10c04:	b781                	j	10b44 <plural_eval+0x32>
   10c06:	40a90933          	sub	s2,s2,a0
   10c0a:	00193913          	seqz	s2,s2
   10c0e:	bf1d                	j	10b44 <plural_eval+0x32>
   10c10:	00a93933          	sltu	s2,s2,a0
   10c14:	00194913          	xori	s2,s2,1
   10c18:	1902                	slli	s2,s2,0x20
   10c1a:	02095913          	srli	s2,s2,0x20
   10c1e:	b71d                	j	10b44 <plural_eval+0x32>
   10c20:	01253933          	sltu	s2,a0,s2
   10c24:	00194913          	xori	s2,s2,1
   10c28:	1902                	slli	s2,s2,0x20
   10c2a:	02095913          	srli	s2,s2,0x20
   10c2e:	bf19                	j	10b44 <plural_eval+0x32>
   10c30:	01253933          	sltu	s2,a0,s2
   10c34:	bf01                	j	10b44 <plural_eval+0x32>
   10c36:	00a93933          	sltu	s2,s2,a0
   10c3a:	b729                	j	10b44 <plural_eval+0x32>
   10c3c:	40a90933          	sub	s2,s2,a0
   10c40:	b711                	j	10b44 <plural_eval+0x32>
   10c42:	992a                	add	s2,s2,a0
   10c44:	b701                	j	10b44 <plural_eval+0x32>
   10c46:	c501                	beqz	a0,10c4e <plural_eval+0x13c>
   10c48:	02897933          	remu	s2,s2,s0
   10c4c:	bde5                	j	10b44 <plural_eval+0x32>
   10c4e:	4521                	li	a0,8
   10c50:	35a030ef          	jal	ra,13faa <raise>
   10c54:	02897933          	remu	s2,s2,s0
   10c58:	b5f5                	j	10b44 <plural_eval+0x32>
   10c5a:	4521                	li	a0,8
   10c5c:	34e030ef          	jal	ra,13faa <raise>
   10c60:	02895933          	divu	s2,s2,s0
   10c64:	b5c5                	j	10b44 <plural_eval+0x32>

0000000000010c66 <transcmp>:
   10c66:	711c                	ld	a5,32(a0)
   10c68:	1101                	addi	sp,sp,-32
   10c6a:	e822                	sd	s0,16(sp)
   10c6c:	e426                	sd	s1,8(sp)
   10c6e:	ec06                	sd	ra,24(sp)
   10c70:	84aa                	mv	s1,a0
   10c72:	842e                	mv	s0,a1
   10c74:	03850513          	addi	a0,a0,56
   10c78:	cf85                	beqz	a5,10cb0 <transcmp+0x4a>
   10c7a:	701c                	ld	a5,32(s0)
   10c7c:	03840593          	addi	a1,s0,56
   10c80:	c795                	beqz	a5,10cac <transcmp+0x46>
   10c82:	18f0d0ef          	jal	ra,1e610 <strcmp>
   10c86:	ed11                	bnez	a0,10ca2 <transcmp+0x3c>
   10c88:	600c                	ld	a1,0(s0)
   10c8a:	6088                	ld	a0,0(s1)
   10c8c:	1850d0ef          	jal	ra,1e610 <strcmp>
   10c90:	e909                	bnez	a0,10ca2 <transcmp+0x3c>
   10c92:	680c                	ld	a1,16(s0)
   10c94:	6888                	ld	a0,16(s1)
   10c96:	17b0d0ef          	jal	ra,1e610 <strcmp>
   10c9a:	e501                	bnez	a0,10ca2 <transcmp+0x3c>
   10c9c:	4488                	lw	a0,8(s1)
   10c9e:	441c                	lw	a5,8(s0)
   10ca0:	9d1d                	subw	a0,a0,a5
   10ca2:	60e2                	ld	ra,24(sp)
   10ca4:	6442                	ld	s0,16(sp)
   10ca6:	64a2                	ld	s1,8(sp)
   10ca8:	6105                	addi	sp,sp,32
   10caa:	8082                	ret
   10cac:	7c0c                	ld	a1,56(s0)
   10cae:	bfd1                	j	10c82 <transcmp+0x1c>
   10cb0:	7c88                	ld	a0,56(s1)
   10cb2:	b7e1                	j	10c7a <transcmp+0x14>

0000000000010cb4 <plural_lookup.isra.0>:
   10cb4:	7179                	addi	sp,sp,-48
   10cb6:	f022                	sd	s0,32(sp)
   10cb8:	842a                	mv	s0,a0
   10cba:	7d48                	ld	a0,184(a0)
   10cbc:	ec26                	sd	s1,24(sp)
   10cbe:	e44e                	sd	s3,8(sp)
   10cc0:	f406                	sd	ra,40(sp)
   10cc2:	e84a                	sd	s2,16(sp)
   10cc4:	89b2                	mv	s3,a2
   10cc6:	84b6                	mv	s1,a3
   10cc8:	e4bff0ef          	jal	ra,10b12 <plural_eval>
   10ccc:	607c                	ld	a5,192(s0)
   10cce:	00f57f63          	bgeu	a0,a5,10cec <plural_lookup.isra.0+0x38>
   10cd2:	842a                	mv	s0,a0
   10cd4:	597d                	li	s2,-1
   10cd6:	854e                	mv	a0,s3
   10cd8:	94ce                	add	s1,s1,s3
   10cda:	147d                	addi	s0,s0,-1
   10cdc:	4581                	li	a1,0
   10cde:	01240f63          	beq	s0,s2,10cfc <plural_lookup.isra.0+0x48>
   10ce2:	3590e0ef          	jal	ra,1f83a <__rawmemchr>
   10ce6:	0505                	addi	a0,a0,1
   10ce8:	fe9569e3          	bltu	a0,s1,10cda <plural_lookup.isra.0+0x26>
   10cec:	70a2                	ld	ra,40(sp)
   10cee:	7402                	ld	s0,32(sp)
   10cf0:	64e2                	ld	s1,24(sp)
   10cf2:	6942                	ld	s2,16(sp)
   10cf4:	854e                	mv	a0,s3
   10cf6:	69a2                	ld	s3,8(sp)
   10cf8:	6145                	addi	sp,sp,48
   10cfa:	8082                	ret
   10cfc:	89aa                	mv	s3,a0
   10cfe:	b7fd                	j	10cec <plural_lookup.isra.0+0x38>

0000000000010d00 <_nl_find_msg>:
   10d00:	7131                	addi	sp,sp,-192
   10d02:	f922                	sd	s0,176(sp)
   10d04:	f526                	sd	s1,168(sp)
   10d06:	0180                	addi	s0,sp,192
   10d08:	fcde                	sd	s7,120(sp)
   10d0a:	fd06                	sd	ra,184(sp)
   10d0c:	f14a                	sd	s2,160(sp)
   10d0e:	ed4e                	sd	s3,152(sp)
   10d10:	e952                	sd	s4,144(sp)
   10d12:	e556                	sd	s5,136(sp)
   10d14:	e15a                	sd	s6,128(sp)
   10d16:	f8e2                	sd	s8,112(sp)
   10d18:	f4e6                	sd	s9,104(sp)
   10d1a:	f0ea                	sd	s10,96(sp)
   10d1c:	ecee                	sd	s11,88(sp)
   10d1e:	451c                	lw	a5,8(a0)
   10d20:	f4b43023          	sd	a1,-192(s0)
   10d24:	f4d43823          	sd	a3,-176(s0)
   10d28:	f4e43423          	sd	a4,-184(s0)
   10d2c:	8baa                	mv	s7,a0
   10d2e:	84b2                	mv	s1,a2
   10d30:	1cf05c63          	blez	a5,10f08 <_nl_find_msg+0x208>
   10d34:	010bbd03          	ld	s10,16(s7)
   10d38:	120d0363          	beqz	s10,10e5e <_nl_find_msg+0x15e>
   10d3c:	060d3703          	ld	a4,96(s10)
   10d40:	028d2903          	lw	s2,40(s10)
   10d44:	c361                	beqz	a4,10e04 <_nl_find_msg+0x104>
   10d46:	8526                	mv	a0,s1
   10d48:	24d0d0ef          	jal	ra,1e794 <strlen>
   10d4c:	8a2a                	mv	s4,a0
   10d4e:	8526                	mv	a0,s1
   10d50:	174030ef          	jal	ra,13ec4 <__hash_string>
   10d54:	058d2c03          	lw	s8,88(s10)
   10d58:	000a079b          	sext.w	a5,s4
   10d5c:	068d2b03          	lw	s6,104(s10)
   10d60:	ffec099b          	addiw	s3,s8,-2
   10d64:	03857dbb          	remuw	s11,a0,s8
   10d68:	060d3a83          	ld	s5,96(s10)
   10d6c:	f6f43423          	sd	a5,-152(s0)
   10d70:	1a02                	slli	s4,s4,0x20
   10d72:	020a5a13          	srli	s4,s4,0x20
   10d76:	0335753b          	remuw	a0,a0,s3
   10d7a:	0015099b          	addiw	s3,a0,1
   10d7e:	418987bb          	subw	a5,s3,s8
   10d82:	413c0cbb          	subw	s9,s8,s3
   10d86:	f6f42023          	sw	a5,-160(s0)
   10d8a:	020d9713          	slli	a4,s11,0x20
   10d8e:	8379                	srli	a4,a4,0x1e
   10d90:	9756                	add	a4,a4,s5
   10d92:	4308                	lw	a0,0(a4)
   10d94:	000b0563          	beqz	s6,10d9e <_nl_find_msg+0x9e>
   10d98:	69c350ef          	jal	ra,46434 <__bswapsi2>
   10d9c:	2501                	sext.w	a0,a0
   10d9e:	c161                	beqz	a0,10e5e <_nl_find_msg+0x15e>
   10da0:	357d                	addiw	a0,a0,-1
   10da2:	00050c1b          	sext.w	s8,a0
   10da6:	0d2c7f63          	bgeu	s8,s2,10e84 <_nl_find_msg+0x184>
   10daa:	030d3703          	ld	a4,48(s10)
   10dae:	1502                	slli	a0,a0,0x20
   10db0:	9101                	srli	a0,a0,0x20
   10db2:	018d2583          	lw	a1,24(s10)
   10db6:	050e                	slli	a0,a0,0x3
   10db8:	972a                	add	a4,a4,a0
   10dba:	4308                	lw	a0,0(a4)
   10dbc:	12058d63          	beqz	a1,10ef6 <_nl_find_msg+0x1f6>
   10dc0:	f4e43c23          	sd	a4,-168(s0)
   10dc4:	670350ef          	jal	ra,46434 <__bswapsi2>
   10dc8:	f6843783          	ld	a5,-152(s0)
   10dcc:	2501                	sext.w	a0,a0
   10dce:	f5843703          	ld	a4,-168(s0)
   10dd2:	02f56263          	bltu	a0,a5,10df6 <_nl_find_msg+0xf6>
   10dd6:	000d3583          	ld	a1,0(s10)
   10dda:	4348                	lw	a0,4(a4)
   10ddc:	f4b43c23          	sd	a1,-168(s0)
   10de0:	654350ef          	jal	ra,46434 <__bswapsi2>
   10de4:	f5843583          	ld	a1,-168(s0)
   10de8:	1502                	slli	a0,a0,0x20
   10dea:	9101                	srli	a0,a0,0x20
   10dec:	95aa                	add	a1,a1,a0
   10dee:	8526                	mv	a0,s1
   10df0:	0210d0ef          	jal	ra,1e610 <strcmp>
   10df4:	c55d                	beqz	a0,10ea2 <_nl_find_msg+0x1a2>
   10df6:	0f9ded63          	bltu	s11,s9,10ef0 <_nl_find_msg+0x1f0>
   10dfa:	f6042783          	lw	a5,-160(s0)
   10dfe:	01b78dbb          	addw	s11,a5,s11
   10e02:	b761                	j	10d8a <_nl_find_msg+0x8a>
   10e04:	02091b13          	slli	s6,s2,0x20
   10e08:	020b5b13          	srli	s6,s6,0x20
   10e0c:	8ada                	mv	s5,s6
   10e0e:	4a01                	li	s4,0
   10e10:	014a89b3          	add	s3,s5,s4
   10e14:	0019d993          	srli	s3,s3,0x1
   10e18:	00399693          	slli	a3,s3,0x3
   10e1c:	055a7163          	bgeu	s4,s5,10e5e <_nl_find_msg+0x15e>
   10e20:	030d3703          	ld	a4,48(s10)
   10e24:	018d2603          	lw	a2,24(s10)
   10e28:	000d3c03          	ld	s8,0(s10)
   10e2c:	9736                	add	a4,a4,a3
   10e2e:	4348                	lw	a0,4(a4)
   10e30:	c64d                	beqz	a2,10eda <_nl_find_msg+0x1da>
   10e32:	602350ef          	jal	ra,46434 <__bswapsi2>
   10e36:	1502                	slli	a0,a0,0x20
   10e38:	9101                	srli	a0,a0,0x20
   10e3a:	00ac05b3          	add	a1,s8,a0
   10e3e:	8526                	mv	a0,s1
   10e40:	7d00d0ef          	jal	ra,1e610 <strcmp>
   10e44:	0a054463          	bltz	a0,10eec <_nl_find_msg+0x1ec>
   10e48:	c52d                	beqz	a0,10eb2 <_nl_find_msg+0x1b2>
   10e4a:	00198a13          	addi	s4,s3,1
   10e4e:	014a89b3          	add	s3,s5,s4
   10e52:	0019d993          	srli	s3,s3,0x1
   10e56:	00399693          	slli	a3,s3,0x3
   10e5a:	fd5a63e3          	bltu	s4,s5,10e20 <_nl_find_msg+0x120>
   10e5e:	4a01                	li	s4,0
   10e60:	f4040113          	addi	sp,s0,-192
   10e64:	70ea                	ld	ra,184(sp)
   10e66:	8552                	mv	a0,s4
   10e68:	744a                	ld	s0,176(sp)
   10e6a:	74aa                	ld	s1,168(sp)
   10e6c:	790a                	ld	s2,160(sp)
   10e6e:	69ea                	ld	s3,152(sp)
   10e70:	6a4a                	ld	s4,144(sp)
   10e72:	6aaa                	ld	s5,136(sp)
   10e74:	6b0a                	ld	s6,128(sp)
   10e76:	7be6                	ld	s7,120(sp)
   10e78:	7c46                	ld	s8,112(sp)
   10e7a:	7ca6                	ld	s9,104(sp)
   10e7c:	7d06                	ld	s10,96(sp)
   10e7e:	6de6                	ld	s11,88(sp)
   10e80:	6129                	addi	sp,sp,192
   10e82:	8082                	ret
   10e84:	048d3703          	ld	a4,72(s10)
   10e88:	4125053b          	subw	a0,a0,s2
   10e8c:	1502                	slli	a0,a0,0x20
   10e8e:	8171                	srli	a0,a0,0x1c
   10e90:	953a                	add	a0,a0,a4
   10e92:	6118                	ld	a4,0(a0)
   10e94:	f6ea71e3          	bgeu	s4,a4,10df6 <_nl_find_msg+0xf6>
   10e98:	650c                	ld	a1,8(a0)
   10e9a:	8526                	mv	a0,s1
   10e9c:	7740d0ef          	jal	ra,1e610 <strcmp>
   10ea0:	f939                	bnez	a0,10df6 <_nl_find_msg+0xf6>
   10ea2:	020c1993          	slli	s3,s8,0x20
   10ea6:	02091b13          	slli	s6,s2,0x20
   10eaa:	0209d993          	srli	s3,s3,0x20
   10eae:	020b5b13          	srli	s6,s6,0x20
   10eb2:	0569ee63          	bltu	s3,s6,10f0e <_nl_find_msg+0x20e>
   10eb6:	050d3703          	ld	a4,80(s10)
   10eba:	41698b33          	sub	s6,s3,s6
   10ebe:	0b12                	slli	s6,s6,0x4
   10ec0:	9b3a                	add	s6,s6,a4
   10ec2:	008b3a03          	ld	s4,8(s6)
   10ec6:	000b3b03          	ld	s6,0(s6)
   10eca:	f5043783          	ld	a5,-176(s0)
   10ece:	efad                	bnez	a5,10f48 <_nl_find_msg+0x248>
   10ed0:	f4843783          	ld	a5,-184(s0)
   10ed4:	0167b023          	sd	s6,0(a5)
   10ed8:	b761                	j	10e60 <_nl_find_msg+0x160>
   10eda:	1502                	slli	a0,a0,0x20
   10edc:	9101                	srli	a0,a0,0x20
   10ede:	00ac05b3          	add	a1,s8,a0
   10ee2:	8526                	mv	a0,s1
   10ee4:	72c0d0ef          	jal	ra,1e610 <strcmp>
   10ee8:	f60550e3          	bgez	a0,10e48 <_nl_find_msg+0x148>
   10eec:	8ace                	mv	s5,s3
   10eee:	b70d                	j	10e10 <_nl_find_msg+0x110>
   10ef0:	013d8dbb          	addw	s11,s11,s3
   10ef4:	bd59                	j	10d8a <_nl_find_msg+0x8a>
   10ef6:	f6843783          	ld	a5,-152(s0)
   10efa:	eef56ee3          	bltu	a0,a5,10df6 <_nl_find_msg+0xf6>
   10efe:	000d3583          	ld	a1,0(s10)
   10f02:	00476503          	lwu	a0,4(a4)
   10f06:	b5dd                	j	10dec <_nl_find_msg+0xec>
   10f08:	505000ef          	jal	ra,11c0c <_nl_load_domain>
   10f0c:	b525                	j	10d34 <_nl_find_msg+0x34>
   10f0e:	038d3703          	ld	a4,56(s10)
   10f12:	018d2683          	lw	a3,24(s10)
   10f16:	00399613          	slli	a2,s3,0x3
   10f1a:	9732                	add	a4,a4,a2
   10f1c:	000d3a03          	ld	s4,0(s10)
   10f20:	4348                	lw	a0,4(a4)
   10f22:	00072b03          	lw	s6,0(a4)
   10f26:	26068e63          	beqz	a3,111a2 <_nl_find_msg+0x4a2>
   10f2a:	50a350ef          	jal	ra,46434 <__bswapsi2>
   10f2e:	02051713          	slli	a4,a0,0x20
   10f32:	9301                	srli	a4,a4,0x20
   10f34:	855a                	mv	a0,s6
   10f36:	9a3a                	add	s4,s4,a4
   10f38:	4fc350ef          	jal	ra,46434 <__bswapsi2>
   10f3c:	00150b1b          	addiw	s6,a0,1
   10f40:	1b02                	slli	s6,s6,0x20
   10f42:	020b5b13          	srli	s6,s6,0x20
   10f46:	b751                	j	10eca <_nl_find_msg+0x1ca>
   10f48:	f4043783          	ld	a5,-192(s0)
   10f4c:	22078e63          	beqz	a5,11188 <_nl_find_msg+0x488>
   10f50:	0107ba83          	ld	s5,16(a5)
   10f54:	220a8a63          	beqz	s5,11188 <_nl_find_msg+0x488>
   10f58:	00000713          	li	a4,0
   10f5c:	c719                	beqz	a4,10f6a <_nl_find_msg+0x26a>
   10f5e:	080d0513          	addi	a0,s10,128
   10f62:	00000097          	auipc	ra,0x0
   10f66:	000000e7          	jalr	zero # 0 <_nl_current_LC_CTYPE>
   10f6a:	078d3c83          	ld	s9,120(s10)
   10f6e:	001c9c13          	slli	s8,s9,0x1
   10f72:	9c66                	add	s8,s8,s9
   10f74:	0c0e                	slli	s8,s8,0x3
   10f76:	1c21                	addi	s8,s8,-24
   10f78:	a819                	j	10f8e <_nl_find_msg+0x28e>
   10f7a:	070d3483          	ld	s1,112(s10)
   10f7e:	1cfd                	addi	s9,s9,-1
   10f80:	94e2                	add	s1,s1,s8
   10f82:	6088                	ld	a0,0(s1)
   10f84:	1c21                	addi	s8,s8,-24
   10f86:	68a0d0ef          	jal	ra,1e610 <strcmp>
   10f8a:	22050463          	beqz	a0,111b2 <_nl_find_msg+0x4b2>
   10f8e:	85d6                	mv	a1,s5
   10f90:	fe0c95e3          	bnez	s9,10f7a <_nl_find_msg+0x27a>
   10f94:	00000793          	li	a5,0
   10f98:	f6f43423          	sd	a5,-152(s0)
   10f9c:	c799                	beqz	a5,10faa <_nl_find_msg+0x2aa>
   10f9e:	080d0513          	addi	a0,s10,128
   10fa2:	00000097          	auipc	ra,0x0
   10fa6:	000000e7          	jalr	zero # 0 <_nl_current_LC_CTYPE>
   10faa:	00000713          	li	a4,0
   10fae:	c719                	beqz	a4,10fbc <_nl_find_msg+0x2bc>
   10fb0:	080d0513          	addi	a0,s10,128
   10fb4:	00000097          	auipc	ra,0x0
   10fb8:	000000e7          	jalr	zero # 0 <_nl_current_LC_CTYPE>
   10fbc:	078d3c03          	ld	s8,120(s10)
   10fc0:	070d3c83          	ld	s9,112(s10)
   10fc4:	001c1793          	slli	a5,s8,0x1
   10fc8:	97e2                	add	a5,a5,s8
   10fca:	078e                	slli	a5,a5,0x3
   10fcc:	fe878d93          	addi	s11,a5,-24
   10fd0:	f6f43023          	sd	a5,-160(s0)
   10fd4:	9de6                	add	s11,s11,s9
   10fd6:	a811                	j	10fea <_nl_find_msg+0x2ea>
   10fd8:	000db503          	ld	a0,0(s11)
   10fdc:	84ee                	mv	s1,s11
   10fde:	1c7d                	addi	s8,s8,-1
   10fe0:	6300d0ef          	jal	ra,1e610 <strcmp>
   10fe4:	1da1                	addi	s11,s11,-24
   10fe6:	16050463          	beqz	a0,1114e <_nl_find_msg+0x44e>
   10fea:	85d6                	mv	a1,s5
   10fec:	fe0c16e3          	bnez	s8,10fd8 <_nl_find_msg+0x2d8>
   10ff0:	f6043783          	ld	a5,-160(s0)
   10ff4:	01878593          	addi	a1,a5,24
   10ff8:	3a0c8563          	beqz	s9,113a2 <_nl_find_msg+0x6a2>
   10ffc:	8566                	mv	a0,s9
   10ffe:	10b0c0ef          	jal	ra,1d908 <__libc_realloc>
   11002:	84aa                	mv	s1,a0
   11004:	30048763          	beqz	s1,11312 <_nl_find_msg+0x612>
   11008:	8556                	mv	a0,s5
   1100a:	069d3823          	sd	s1,112(s10)
   1100e:	7520d0ef          	jal	ra,1e760 <__strdup>
   11012:	8aaa                	mv	s5,a0
   11014:	2e050f63          	beqz	a0,11312 <_nl_find_msg+0x612>
   11018:	f6043783          	ld	a5,-160(s0)
   1101c:	f4043583          	ld	a1,-192(s0)
   11020:	5cfd                	li	s9,-1
   11022:	94be                	add	s1,s1,a5
   11024:	0005d637          	lui	a2,0x5d
   11028:	e088                	sd	a0,0(s1)
   1102a:	f8840713          	addi	a4,s0,-120
   1102e:	0194b423          	sd	s9,8(s1)
   11032:	4681                	li	a3,0
   11034:	eb060613          	addi	a2,a2,-336 # 5ceb0 <expected2.10177+0x8>
   11038:	855e                	mv	a0,s7
   1103a:	cc7ff0ef          	jal	ra,10d00 <_nl_find_msg>
   1103e:	872a                	mv	a4,a0
   11040:	43950463          	beq	a0,s9,11468 <_nl_find_msg+0x768>
   11044:	0e050e63          	beqz	a0,11140 <_nl_find_msg+0x440>
   11048:	0004b5b7          	lui	a1,0x4b
   1104c:	1c058593          	addi	a1,a1,448 # 4b1c0 <errstr.11076+0x50>
   11050:	3f50d0ef          	jal	ra,1ec44 <strstr>
   11054:	c575                	beqz	a0,11140 <_nl_find_msg+0x440>
   11056:	00850c93          	addi	s9,a0,8
   1105a:	0004b5b7          	lui	a1,0x4b
   1105e:	1d058593          	addi	a1,a1,464 # 4b1d0 <errstr.11076+0x60>
   11062:	8566                	mv	a0,s9
   11064:	5f00d0ef          	jal	ra,1e654 <strcspn>
   11068:	01050713          	addi	a4,a0,16
   1106c:	9b41                	andi	a4,a4,-16
   1106e:	40e10133          	sub	sp,sp,a4
   11072:	8b8a                	mv	s7,sp
   11074:	862a                	mv	a2,a0
   11076:	85e6                	mv	a1,s9
   11078:	855e                	mv	a0,s7
   1107a:	3500e0ef          	jal	ra,1f3ca <__mempcpy>
   1107e:	000ac703          	lbu	a4,0(s5)
   11082:	00050023          	sb	zero,0(a0)
   11086:	42070463          	beqz	a4,114ae <_nl_find_msg+0x7ae>
   1108a:	86d6                	mv	a3,s5
   1108c:	4881                	li	a7,0
   1108e:	85ba                	mv	a1,a4
   11090:	0685                	addi	a3,a3,1
   11092:	fd158613          	addi	a2,a1,-47
   11096:	0006c583          	lbu	a1,0(a3)
   1109a:	00163613          	seqz	a2,a2
   1109e:	98b2                	add	a7,a7,a2
   110a0:	f9e5                	bnez	a1,11090 <_nl_find_msg+0x390>
   110a2:	415686b3          	sub	a3,a3,s5
   110a6:	06e9                	addi	a3,a3,26
   110a8:	9ac1                	andi	a3,a3,-16
   110aa:	40d10133          	sub	sp,sp,a3
   110ae:	850a                	mv	a0,sp
   110b0:	0005b6b7          	lui	a3,0x5b
   110b4:	ee06b303          	ld	t1,-288(a3) # 5aee0 <_nl_C_locobj+0x78>
   110b8:	8656                	mv	a2,s5
   110ba:	86aa                	mv	a3,a0
   110bc:	070a                	slli	a4,a4,0x2
   110be:	971a                	add	a4,a4,t1
   110c0:	430c                	lw	a1,0(a4)
   110c2:	00164703          	lbu	a4,1(a2)
   110c6:	8e36                	mv	t3,a3
   110c8:	00b68023          	sb	a1,0(a3)
   110cc:	0605                	addi	a2,a2,1
   110ce:	0685                	addi	a3,a3,1
   110d0:	f775                	bnez	a4,110bc <_nl_find_msg+0x3bc>
   110d2:	4705                	li	a4,1
   110d4:	39177c63          	bgeu	a4,a7,1146c <_nl_find_msg+0x76c>
   110d8:	000bc703          	lbu	a4,0(s7)
   110dc:	00068023          	sb	zero,0(a3)
   110e0:	42070863          	beqz	a4,11510 <_nl_find_msg+0x810>
   110e4:	86de                	mv	a3,s7
   110e6:	85ba                	mv	a1,a4
   110e8:	0685                	addi	a3,a3,1
   110ea:	fd158613          	addi	a2,a1,-47
   110ee:	0006c583          	lbu	a1,0(a3)
   110f2:	00163613          	seqz	a2,a2
   110f6:	9c32                	add	s8,s8,a2
   110f8:	f9e5                	bnez	a1,110e8 <_nl_find_msg+0x3e8>
   110fa:	417686b3          	sub	a3,a3,s7
   110fe:	06c9                	addi	a3,a3,18
   11100:	9ac1                	andi	a3,a3,-16
   11102:	40d10133          	sub	sp,sp,a3
   11106:	858a                	mv	a1,sp
   11108:	0005b6b7          	lui	a3,0x5b
   1110c:	ee06b883          	ld	a7,-288(a3) # 5aee0 <_nl_C_locobj+0x78>
   11110:	86ae                	mv	a3,a1
   11112:	070a                	slli	a4,a4,0x2
   11114:	9746                	add	a4,a4,a7
   11116:	4310                	lw	a2,0(a4)
   11118:	001bc703          	lbu	a4,1(s7)
   1111c:	8336                	mv	t1,a3
   1111e:	00c68023          	sb	a2,0(a3)
   11122:	0b85                	addi	s7,s7,1
   11124:	0685                	addi	a3,a3,1
   11126:	f775                	bnez	a4,11112 <_nl_find_msg+0x412>
   11128:	4705                	li	a4,1
   1112a:	35877a63          	bgeu	a4,s8,1147e <_nl_find_msg+0x77e>
   1112e:	00068023          	sb	zero,0(a3)
   11132:	00848613          	addi	a2,s1,8
   11136:	4685                	li	a3,1
   11138:	3a6110ef          	jal	ra,224de <__gconv_open>
   1113c:	30051663          	bnez	a0,11448 <_nl_find_msg+0x748>
   11140:	078d3703          	ld	a4,120(s10)
   11144:	0004b823          	sd	zero,16(s1)
   11148:	0705                	addi	a4,a4,1
   1114a:	06ed3c23          	sd	a4,120(s10)
   1114e:	f6843783          	ld	a5,-152(s0)
   11152:	c799                	beqz	a5,11160 <_nl_find_msg+0x460>
   11154:	080d0513          	addi	a0,s10,128
   11158:	00000097          	auipc	ra,0x0
   1115c:	000000e7          	jalr	zero # 0 <_nl_current_LC_CTYPE>
   11160:	6494                	ld	a3,8(s1)
   11162:	577d                	li	a4,-1
   11164:	d6e686e3          	beq	a3,a4,10ed0 <_nl_find_msg+0x1d0>
   11168:	6898                	ld	a4,16(s1)
   1116a:	1a070f63          	beqz	a4,11328 <_nl_find_msg+0x628>
   1116e:	57fd                	li	a5,-1
   11170:	1af70a63          	beq	a4,a5,11324 <_nl_find_msg+0x624>
   11174:	00399793          	slli	a5,s3,0x3
   11178:	973e                	add	a4,a4,a5
   1117a:	631c                	ld	a5,0(a4)
   1117c:	c3bd                	beqz	a5,111e2 <_nl_find_msg+0x4e2>
   1117e:	0007bb03          	ld	s6,0(a5)
   11182:	00878a13          	addi	s4,a5,8
   11186:	b3a9                	j	10ed0 <_nl_find_msg+0x1d0>
   11188:	9c01a703          	lw	a4,-1600(gp) # 6bad0 <output_charset_cached.10986>
   1118c:	c71d                	beqz	a4,111ba <_nl_find_msg+0x4ba>
   1118e:	9b81ba83          	ld	s5,-1608(gp) # 6bac8 <output_charset_cache.10985>
   11192:	dc0a93e3          	bnez	s5,10f58 <_nl_find_msg+0x258>
   11196:	00023703          	ld	a4,0(tp) # 0 <_nl_current_LC_CTYPE>
   1119a:	6318                	ld	a4,0(a4)
   1119c:	0b073a83          	ld	s5,176(a4)
   111a0:	bb65                	j	10f58 <_nl_find_msg+0x258>
   111a2:	1502                	slli	a0,a0,0x20
   111a4:	2b05                	addiw	s6,s6,1
   111a6:	9101                	srli	a0,a0,0x20
   111a8:	1b02                	slli	s6,s6,0x20
   111aa:	9a2a                	add	s4,s4,a0
   111ac:	020b5b13          	srli	s6,s6,0x20
   111b0:	bb29                	j	10eca <_nl_find_msg+0x1ca>
   111b2:	00000713          	li	a4,0
   111b6:	ff59                	bnez	a4,11154 <_nl_find_msg+0x454>
   111b8:	b765                	j	11160 <_nl_find_msg+0x460>
   111ba:	0004b537          	lui	a0,0x4b
   111be:	1b050513          	addi	a0,a0,432 # 4b1b0 <errstr.11076+0x40>
   111c2:	308030ef          	jal	ra,144ca <getenv>
   111c6:	8c2a                	mv	s8,a0
   111c8:	c509                	beqz	a0,111d2 <_nl_find_msg+0x4d2>
   111ca:	00054703          	lbu	a4,0(a0)
   111ce:	1a071a63          	bnez	a4,11382 <_nl_find_msg+0x682>
   111d2:	9b81ba83          	ld	s5,-1608(gp) # 6bac8 <output_charset_cache.10985>
   111d6:	4705                	li	a4,1
   111d8:	9ce1a023          	sw	a4,-1600(gp) # 6bad0 <output_charset_cached.10986>
   111dc:	d60a9ee3          	bnez	s5,10f58 <_nl_find_msg+0x258>
   111e0:	bf5d                	j	11196 <_nl_find_msg+0x496>
   111e2:	f4f43c23          	sd	a5,-168(s0)
   111e6:	4705                	li	a4,1
   111e8:	9d818693          	addi	a3,gp,-1576 # 6bae8 <lock.10862>
   111ec:	1006a7af          	lr.w	a5,(a3)
   111f0:	e781                	bnez	a5,111f8 <_nl_find_msg+0x4f8>
   111f2:	1ce6a62f          	sc.w.aq	a2,a4,(a3)
   111f6:	fa7d                	bnez	a2,111ec <_nl_find_msg+0x4ec>
   111f8:	2781                	sext.w	a5,a5
   111fa:	22079163          	bnez	a5,1141c <_nl_find_msg+0x71c>
   111fe:	9d01b783          	ld	a5,-1584(gp) # 6bae0 <freemem.10892>
   11202:	6d85                	lui	s11,0x1
   11204:	07a1                	addi	a5,a5,8
   11206:	f8f43023          	sd	a5,-128(s0)
   1120a:	fe8d8793          	addi	a5,s11,-24 # fe8 <catch_hook+0xf90>
   1120e:	9c81b603          	ld	a2,-1592(gp) # 6bad8 <freemem_size.10893>
   11212:	f7443c23          	sd	s4,-136(s0)
   11216:	4c81                	li	s9,0
   11218:	4d1d                	li	s10,7
   1121a:	ff0d8b93          	addi	s7,s11,-16
   1121e:	f6f43023          	sd	a5,-160(s0)
   11222:	a81d                	j	11258 <_nl_find_msg+0x558>
   11224:	9e01bd83          	ld	s11,-1568(gp) # 6baf0 <transmem_list>
   11228:	00078c9b          	sext.w	s9,a5
   1122c:	9cc1b423          	sd	a2,-1592(gp) # 6bad8 <freemem_size.10893>
   11230:	856e                	mv	a0,s11
   11232:	f6c43423          	sd	a2,-152(s0)
   11236:	6d20c0ef          	jal	ra,1d908 <__libc_realloc>
   1123a:	c551                	beqz	a0,112c6 <_nl_find_msg+0x5c6>
   1123c:	f6843603          	ld	a2,-152(s0)
   11240:	9ea1b023          	sd	a0,-1568(gp) # 6baf0 <transmem_list>
   11244:	1661                	addi	a2,a2,-8
   11246:	00850793          	addi	a5,a0,8
   1124a:	0541                	addi	a0,a0,16
   1124c:	9cf1b823          	sd	a5,-1584(gp) # 6bae0 <freemem.10892>
   11250:	9cc1b423          	sd	a2,-1592(gp) # 6bad8 <freemem_size.10893>
   11254:	f8a43023          	sd	a0,-128(s0)
   11258:	ff860713          	addi	a4,a2,-8
   1125c:	f8840793          	addi	a5,s0,-120
   11260:	f8040693          	addi	a3,s0,-128
   11264:	f7840593          	addi	a1,s0,-136
   11268:	02cd7663          	bgeu	s10,a2,11294 <_nl_find_msg+0x594>
   1126c:	f8043603          	ld	a2,-128(s0)
   11270:	6488                	ld	a0,8(s1)
   11272:	9732                	add	a4,a4,a2
   11274:	f7843603          	ld	a2,-136(s0)
   11278:	965a                	add	a2,a2,s6
   1127a:	596110ef          	jal	ra,22810 <__gconv>
   1127e:	ffb57793          	andi	a5,a0,-5
   11282:	0007889b          	sext.w	a7,a5
   11286:	4715                	li	a4,5
   11288:	12088263          	beqz	a7,113ac <_nl_find_msg+0x6ac>
   1128c:	16e51963          	bne	a0,a4,113fe <_nl_find_msg+0x6fe>
   11290:	f7443c23          	sd	s4,-136(s0)
   11294:	001c879b          	addiw	a5,s9,1
   11298:	0087961b          	slliw	a2,a5,0x8
   1129c:	9e1d                	subw	a2,a2,a5
   1129e:	0046161b          	slliw	a2,a2,0x4
   112a2:	85b2                	mv	a1,a2
   112a4:	855e                	mv	a0,s7
   112a6:	f60c9fe3          	bnez	s9,11224 <_nl_find_msg+0x524>
   112aa:	9d71b423          	sd	s7,-1592(gp) # 6bad8 <freemem_size.10893>
   112ae:	05e0c0ef          	jal	ra,1d30c <__libc_malloc>
   112b2:	c10d                	beqz	a0,112d4 <_nl_find_msg+0x5d4>
   112b4:	9e01b783          	ld	a5,-1568(gp) # 6baf0 <transmem_list>
   112b8:	f6043603          	ld	a2,-160(s0)
   112bc:	9ea1b023          	sd	a0,-1568(gp) # 6baf0 <transmem_list>
   112c0:	e11c                	sd	a5,0(a0)
   112c2:	4c85                	li	s9,1
   112c4:	b749                	j	11246 <_nl_find_msg+0x546>
   112c6:	000db783          	ld	a5,0(s11)
   112ca:	856e                	mv	a0,s11
   112cc:	9ef1b023          	sd	a5,-1568(gp) # 6baf0 <transmem_list>
   112d0:	4b80c0ef          	jal	ra,1d788 <__free>
   112d4:	f5843703          	ld	a4,-168(s0)
   112d8:	9c01b823          	sd	zero,-1584(gp) # 6bae0 <freemem.10892>
   112dc:	9c01b423          	sd	zero,-1592(gp) # 6bad8 <freemem_size.10893>
   112e0:	4781                	li	a5,0
   112e2:	9d818713          	addi	a4,gp,-1576 # 6bae8 <lock.10862>
   112e6:	0f50000f          	fence	iorw,ow
   112ea:	08f727af          	amoswap.w	a5,a5,(a4)
   112ee:	2781                	sext.w	a5,a5
   112f0:	4705                	li	a4,1
   112f2:	5a7d                	li	s4,-1
   112f4:	b6f756e3          	bge	a4,a5,10e60 <_nl_find_msg+0x160>
   112f8:	f5843783          	ld	a5,-168(s0)
   112fc:	06200893          	li	a7,98
   11300:	08100593          	li	a1,129
   11304:	9d818513          	addi	a0,gp,-1576 # 6bae8 <lock.10862>
   11308:	4605                	li	a2,1
   1130a:	4681                	li	a3,0
   1130c:	00000073          	ecall
   11310:	be81                	j	10e60 <_nl_find_msg+0x160>
   11312:	f6843783          	ld	a5,-152(s0)
   11316:	c799                	beqz	a5,11324 <_nl_find_msg+0x624>
   11318:	080d0513          	addi	a0,s10,128
   1131c:	00000097          	auipc	ra,0x0
   11320:	000000e7          	jalr	zero # 0 <_nl_current_LC_CTYPE>
   11324:	5a7d                	li	s4,-1
   11326:	be2d                	j	10e60 <_nl_find_msg+0x160>
   11328:	f4f43c23          	sd	a5,-168(s0)
   1132c:	4685                	li	a3,1
   1132e:	9d818793          	addi	a5,gp,-1576 # 6bae8 <lock.10862>
   11332:	1007a72f          	lr.w	a4,(a5)
   11336:	e701                	bnez	a4,1133e <_nl_find_msg+0x63e>
   11338:	1cd7a62f          	sc.w.aq	a2,a3,(a5)
   1133c:	fa7d                	bnez	a2,11332 <_nl_find_msg+0x632>
   1133e:	2701                	sext.w	a4,a4
   11340:	14071863          	bnez	a4,11490 <_nl_find_msg+0x790>
   11344:	6898                	ld	a4,16(s1)
   11346:	c375                	beqz	a4,1142a <_nl_find_msg+0x72a>
   11348:	f5843703          	ld	a4,-168(s0)
   1134c:	4781                	li	a5,0
   1134e:	9d818713          	addi	a4,gp,-1576 # 6bae8 <lock.10862>
   11352:	0f50000f          	fence	iorw,ow
   11356:	08f727af          	amoswap.w	a5,a5,(a4)
   1135a:	2781                	sext.w	a5,a5
   1135c:	4705                	li	a4,1
   1135e:	00f74463          	blt	a4,a5,11366 <_nl_find_msg+0x666>
   11362:	6898                	ld	a4,16(s1)
   11364:	b529                	j	1116e <_nl_find_msg+0x46e>
   11366:	f5843783          	ld	a5,-168(s0)
   1136a:	06200893          	li	a7,98
   1136e:	08100593          	li	a1,129
   11372:	9d818513          	addi	a0,gp,-1576 # 6bae8 <lock.10862>
   11376:	4605                	li	a2,1
   11378:	4681                	li	a3,0
   1137a:	00000073          	ecall
   1137e:	6898                	ld	a4,16(s1)
   11380:	b3fd                	j	1116e <_nl_find_msg+0x46e>
   11382:	4120d0ef          	jal	ra,1e794 <strlen>
   11386:	00150c93          	addi	s9,a0,1
   1138a:	8566                	mv	a0,s9
   1138c:	7810b0ef          	jal	ra,1d30c <__libc_malloc>
   11390:	8aaa                	mv	s5,a0
   11392:	c509                	beqz	a0,1139c <_nl_find_msg+0x69c>
   11394:	8666                	mv	a2,s9
   11396:	85e2                	mv	a1,s8
   11398:	0aa0e0ef          	jal	ra,1f442 <memcpy>
   1139c:	9b51bc23          	sd	s5,-1608(gp) # 6bac8 <output_charset_cache.10985>
   113a0:	bd1d                	j	111d6 <_nl_find_msg+0x4d6>
   113a2:	852e                	mv	a0,a1
   113a4:	7690b0ef          	jal	ra,1d30c <__libc_malloc>
   113a8:	84aa                	mv	s1,a0
   113aa:	b9a9                	j	11004 <_nl_find_msg+0x304>
   113ac:	f8043683          	ld	a3,-128(s0)
   113b0:	9d01b503          	ld	a0,-1584(gp) # 6bae0 <freemem.10892>
   113b4:	9c81b703          	ld	a4,-1592(gp) # 6bad8 <freemem_size.10893>
   113b8:	688c                	ld	a1,16(s1)
   113ba:	40a68633          	sub	a2,a3,a0
   113be:	f5843783          	ld	a5,-168(s0)
   113c2:	8f11                	sub	a4,a4,a2
   113c4:	00777813          	andi	a6,a4,7
   113c8:	1661                	addi	a2,a2,-8
   113ca:	098e                	slli	s3,s3,0x3
   113cc:	e110                	sd	a2,0(a0)
   113ce:	96c2                	add	a3,a3,a6
   113d0:	01358633          	add	a2,a1,s3
   113d4:	9b61                	andi	a4,a4,-8
   113d6:	9ce1b423          	sd	a4,-1592(gp) # 6bad8 <freemem_size.10893>
   113da:	e208                	sd	a0,0(a2)
   113dc:	9d818713          	addi	a4,gp,-1576 # 6bae8 <lock.10862>
   113e0:	9cd1b823          	sd	a3,-1584(gp) # 6bae0 <freemem.10892>
   113e4:	87c6                	mv	a5,a7
   113e6:	0f50000f          	fence	iorw,ow
   113ea:	08f727af          	amoswap.w	a5,a5,(a4)
   113ee:	2781                	sext.w	a5,a5
   113f0:	4705                	li	a4,1
   113f2:	12f74763          	blt	a4,a5,11520 <_nl_find_msg+0x820>
   113f6:	689c                	ld	a5,16(s1)
   113f8:	97ce                	add	a5,a5,s3
   113fa:	639c                	ld	a5,0(a5)
   113fc:	b349                	j	1117e <_nl_find_msg+0x47e>
   113fe:	f5843703          	ld	a4,-168(s0)
   11402:	4781                	li	a5,0
   11404:	9d818713          	addi	a4,gp,-1576 # 6bae8 <lock.10862>
   11408:	0f50000f          	fence	iorw,ow
   1140c:	08f727af          	amoswap.w	a5,a5,(a4)
   11410:	2781                	sext.w	a5,a5
   11412:	4705                	li	a4,1
   11414:	4a01                	li	s4,0
   11416:	a4f755e3          	bge	a4,a5,10e60 <_nl_find_msg+0x160>
   1141a:	bdf9                	j	112f8 <_nl_find_msg+0x5f8>
   1141c:	f5843783          	ld	a5,-168(s0)
   11420:	9d818513          	addi	a0,gp,-1576 # 6bae8 <lock.10862>
   11424:	162100ef          	jal	ra,21586 <__lll_lock_wait_private>
   11428:	bbd9                	j	111fe <_nl_find_msg+0x4fe>
   1142a:	040d2503          	lw	a0,64(s10)
   1142e:	45a1                	li	a1,8
   11430:	0125053b          	addw	a0,a0,s2
   11434:	1502                	slli	a0,a0,0x20
   11436:	9101                	srli	a0,a0,0x20
   11438:	7ca0c0ef          	jal	ra,1dc02 <__calloc>
   1143c:	e888                	sd	a0,16(s1)
   1143e:	dc0510e3          	bnez	a0,111fe <_nl_find_msg+0x4fe>
   11442:	57fd                	li	a5,-1
   11444:	e89c                	sd	a5,16(s1)
   11446:	b709                	j	11348 <_nl_find_msg+0x648>
   11448:	56fd                	li	a3,-1
   1144a:	0ed50863          	beq	a0,a3,1153a <_nl_find_msg+0x83a>
   1144e:	f6843783          	ld	a5,-152(s0)
   11452:	c799                	beqz	a5,11460 <_nl_find_msg+0x760>
   11454:	080d0513          	addi	a0,s10,128
   11458:	00000097          	auipc	ra,0x0
   1145c:	000000e7          	jalr	zero # 0 <_nl_current_LC_CTYPE>
   11460:	8556                	mv	a0,s5
   11462:	3260c0ef          	jal	ra,1d788 <__free>
   11466:	4701                	li	a4,0
   11468:	8a3a                	mv	s4,a4
   1146a:	badd                	j	10e60 <_nl_find_msg+0x160>
   1146c:	02f00713          	li	a4,47
   11470:	00e68023          	sb	a4,0(a3)
   11474:	04088463          	beqz	a7,114bc <_nl_find_msg+0x7bc>
   11478:	002e0693          	addi	a3,t3,2
   1147c:	b9b1                	j	110d8 <_nl_find_msg+0x3d8>
   1147e:	02f00713          	li	a4,47
   11482:	00e68023          	sb	a4,0(a3)
   11486:	000c0c63          	beqz	s8,1149e <_nl_find_msg+0x79e>
   1148a:	00230693          	addi	a3,t1,2
   1148e:	b145                	j	1112e <_nl_find_msg+0x42e>
   11490:	f5843783          	ld	a5,-168(s0)
   11494:	9d818513          	addi	a0,gp,-1576 # 6bae8 <lock.10862>
   11498:	0ee100ef          	jal	ra,21586 <__lll_lock_wait_private>
   1149c:	b565                	j	11344 <_nl_find_msg+0x644>
   1149e:	8736                	mv	a4,a3
   114a0:	02f00613          	li	a2,47
   114a4:	00270693          	addi	a3,a4,2
   114a8:	00c700a3          	sb	a2,1(a4)
   114ac:	b149                	j	1112e <_nl_find_msg+0x42e>
   114ae:	1141                	addi	sp,sp,-16
   114b0:	868a                	mv	a3,sp
   114b2:	02f00713          	li	a4,47
   114b6:	00e68023          	sb	a4,0(a3)
   114ba:	8536                	mv	a0,a3
   114bc:	0004d737          	lui	a4,0x4d
   114c0:	c2870713          	addi	a4,a4,-984 # 4cc28 <__PRETTY_FUNCTION__.12146+0x98>
   114c4:	00074f83          	lbu	t6,0(a4)
   114c8:	00174f03          	lbu	t5,1(a4)
   114cc:	00274e83          	lbu	t4,2(a4)
   114d0:	00374e03          	lbu	t3,3(a4)
   114d4:	00474303          	lbu	t1,4(a4)
   114d8:	00574883          	lbu	a7,5(a4)
   114dc:	00674583          	lbu	a1,6(a4)
   114e0:	00774603          	lbu	a2,7(a4)
   114e4:	02f00293          	li	t0,47
   114e8:	005680a3          	sb	t0,1(a3)
   114ec:	01f68123          	sb	t6,2(a3)
   114f0:	01e681a3          	sb	t5,3(a3)
   114f4:	01d68223          	sb	t4,4(a3)
   114f8:	01c682a3          	sb	t3,5(a3)
   114fc:	00668323          	sb	t1,6(a3)
   11500:	011683a3          	sb	a7,7(a3)
   11504:	00b68423          	sb	a1,8(a3)
   11508:	00c684a3          	sb	a2,9(a3)
   1150c:	06a9                	addi	a3,a3,10
   1150e:	b6e9                	j	110d8 <_nl_find_msg+0x3d8>
   11510:	1141                	addi	sp,sp,-16
   11512:	858a                	mv	a1,sp
   11514:	02f00713          	li	a4,47
   11518:	00e58023          	sb	a4,0(a1)
   1151c:	872e                	mv	a4,a1
   1151e:	b749                	j	114a0 <_nl_find_msg+0x7a0>
   11520:	f5843783          	ld	a5,-168(s0)
   11524:	06200893          	li	a7,98
   11528:	08100593          	li	a1,129
   1152c:	9d818513          	addi	a0,gp,-1576 # 6bae8 <lock.10862>
   11530:	4605                	li	a2,1
   11532:	4681                	li	a3,0
   11534:	00000073          	ecall
   11538:	bd7d                	j	113f6 <_nl_find_msg+0x6f6>
   1153a:	e488                	sd	a0,8(s1)
   1153c:	b111                	j	11140 <_nl_find_msg+0x440>

000000000001153e <__dcigettext>:
   1153e:	716d                	addi	sp,sp,-272
   11540:	e222                	sd	s0,256(sp)
   11542:	e606                	sd	ra,264(sp)
   11544:	0a00                	addi	s0,sp,272
   11546:	fda6                	sd	s1,248(sp)
   11548:	f9ca                	sd	s2,240(sp)
   1154a:	f5ce                	sd	s3,232(sp)
   1154c:	f1d2                	sd	s4,224(sp)
   1154e:	edd6                	sd	s5,216(sp)
   11550:	e9da                	sd	s6,208(sp)
   11552:	e5de                	sd	s7,200(sp)
   11554:	e1e2                	sd	s8,192(sp)
   11556:	fd66                	sd	s9,184(sp)
   11558:	f96a                	sd	s10,176(sp)
   1155a:	f56e                	sd	s11,168(sp)
   1155c:	f4043023          	sd	zero,-192(s0)
   11560:	f0c43c23          	sd	a2,-232(s0)
   11564:	f2d43c23          	sd	a3,-200(s0)
   11568:	f2e43023          	sd	a4,-224(s0)
   1156c:	3c058063          	beqz	a1,1192c <__dcigettext+0x3ee>
   11570:	8abe                	mv	s5,a5
   11572:	47b1                	li	a5,12
   11574:	8a2e                	mv	s4,a1
   11576:	2357e063          	bltu	a5,s5,11796 <__dcigettext+0x258>
   1157a:	4799                	li	a5,6
   1157c:	20fa8d63          	beq	s5,a5,11796 <__dcigettext+0x258>
   11580:	02022783          	lw	a5,32(tp) # 20 <__libc_errno>
   11584:	00000493          	li	s1,0
   11588:	f0f43423          	sd	a5,-248(s0)
   1158c:	89aa                	mv	s3,a0
   1158e:	cc91                	beqz	s1,115aa <__dcigettext+0x6c>
   11590:	57818513          	addi	a0,gp,1400 # 6c688 <__libc_setlocale_lock>
   11594:	00000097          	auipc	ra,0x0
   11598:	000000e7          	jalr	zero # 0 <_nl_current_LC_CTYPE>
   1159c:	c499                	beqz	s1,115aa <__dcigettext+0x6c>
   1159e:	06018513          	addi	a0,gp,96 # 6c170 <_nl_state_lock>
   115a2:	00000097          	auipc	ra,0x0
   115a6:	000000e7          	jalr	zero # 0 <_nl_current_LC_CTYPE>
   115aa:	36098e63          	beqz	s3,11926 <__dcigettext+0x3e8>
   115ae:	8556                	mv	a0,s5
   115b0:	f6043823          	sd	zero,-144(s0)
   115b4:	f9443423          	sd	s4,-120(s0)
   115b8:	f5343823          	sd	s3,-176(s0)
   115bc:	f5542c23          	sw	s5,-168(s0)
   115c0:	450180ef          	jal	ra,29a10 <__current_locale_name>
   115c4:	eea43c23          	sd	a0,-264(s0)
   115c8:	f6a43023          	sd	a0,-160(s0)
   115cc:	c499                	beqz	s1,115da <__dcigettext+0x9c>
   115ce:	09818513          	addi	a0,gp,152 # 6c1a8 <tree_lock>
   115d2:	00000097          	auipc	ra,0x0
   115d6:	000000e7          	jalr	zero # 0 <_nl_current_LC_CTYPE>
   115da:	67c5                	lui	a5,0x11
   115dc:	c6678613          	addi	a2,a5,-922 # 10c66 <transcmp>
   115e0:	9e818593          	addi	a1,gp,-1560 # 6baf8 <root>
   115e4:	f5040513          	addi	a0,s0,-176
   115e8:	6580f0ef          	jal	ra,20c40 <__tfind>
   115ec:	00000c13          	li	s8,0
   115f0:	f0a43823          	sd	a0,-240(s0)
   115f4:	000c0863          	beqz	s8,11604 <__dcigettext+0xc6>
   115f8:	09818513          	addi	a0,gp,152 # 6c1a8 <tree_lock>
   115fc:	00000097          	auipc	ra,0x0
   11600:	000000e7          	jalr	zero # 0 <_nl_current_LC_CTYPE>
   11604:	f1043783          	ld	a5,-240(s0)
   11608:	cb89                	beqz	a5,1161a <__dcigettext+0xdc>
   1160a:	6398                	ld	a4,0(a5)
   1160c:	0006d7b7          	lui	a5,0x6d
   11610:	e907a783          	lw	a5,-368(a5) # 6ce90 <_nl_msg_cat_cntr>
   11614:	4f14                	lw	a3,24(a4)
   11616:	30f68d63          	beq	a3,a5,11930 <__dcigettext+0x3f2>
   1161a:	0006d7b7          	lui	a5,0x6d
   1161e:	e887b483          	ld	s1,-376(a5) # 6ce88 <_nl_domain_bindings>
   11622:	e499                	bnez	s1,11630 <__dcigettext+0xf2>
   11624:	a275                	j	117d0 <__dcigettext+0x292>
   11626:	1a054463          	bltz	a0,117ce <__dcigettext+0x290>
   1162a:	6084                	ld	s1,0(s1)
   1162c:	1a048263          	beqz	s1,117d0 <__dcigettext+0x292>
   11630:	01848593          	addi	a1,s1,24
   11634:	854e                	mv	a0,s3
   11636:	7db0c0ef          	jal	ra,1e610 <strcmp>
   1163a:	f575                	bnez	a0,11626 <__dcigettext+0xe8>
   1163c:	0084bb83          	ld	s7,8(s1)
   11640:	02f00793          	li	a5,47
   11644:	000bc703          	lbu	a4,0(s7)
   11648:	18f71963          	bne	a4,a5,117da <__dcigettext+0x29c>
   1164c:	0004f7b7          	lui	a5,0x4f
   11650:	90878793          	addi	a5,a5,-1784 # 4e908 <_nl_category_name_idxs>
   11654:	97d6                	add	a5,a5,s5
   11656:	0007c783          	lbu	a5,0(a5)
   1165a:	0004f937          	lui	s2,0x4f
   1165e:	8556                	mv	a0,s5
   11660:	87890913          	addi	s2,s2,-1928 # 4e878 <_nl_category_names>
   11664:	993e                	add	s2,s2,a5
   11666:	3aa180ef          	jal	ra,29a10 <__current_locale_name>
   1166a:	00054783          	lbu	a5,0(a0)
   1166e:	8d2a                	mv	s10,a0
   11670:	fbd7879b          	addiw	a5,a5,-67
   11674:	18079b63          	bnez	a5,1180a <__dcigettext+0x2cc>
   11678:	00154783          	lbu	a5,1(a0)
   1167c:	18079763          	bnez	a5,1180a <__dcigettext+0x2cc>
   11680:	854e                	mv	a0,s3
   11682:	1120d0ef          	jal	ra,1e794 <strlen>
   11686:	87aa                	mv	a5,a0
   11688:	854a                	mv	a0,s2
   1168a:	8b3e                	mv	s6,a5
   1168c:	eef43823          	sd	a5,-272(s0)
   11690:	1040d0ef          	jal	ra,1e794 <strlen>
   11694:	016507b3          	add	a5,a0,s6
   11698:	07d1                	addi	a5,a5,20
   1169a:	9bc1                	andi	a5,a5,-16
   1169c:	40f10133          	sub	sp,sp,a5
   116a0:	8c8a                	mv	s9,sp
   116a2:	85ca                	mv	a1,s2
   116a4:	8566                	mv	a0,s9
   116a6:	53b0d0ef          	jal	ra,1f3e0 <__stpcpy>
   116aa:	02f00793          	li	a5,47
   116ae:	00f50023          	sb	a5,0(a0)
   116b2:	865a                	mv	a2,s6
   116b4:	85ce                	mv	a1,s3
   116b6:	000500a3          	sb	zero,1(a0)
   116ba:	0505                	addi	a0,a0,1
   116bc:	50f0d0ef          	jal	ra,1f3ca <__mempcpy>
   116c0:	0004b737          	lui	a4,0x4b
   116c4:	1f070793          	addi	a5,a4,496 # 4b1f0 <errstr.11076+0x80>
   116c8:	1f074603          	lbu	a2,496(a4)
   116cc:	0017c683          	lbu	a3,1(a5)
   116d0:	0027c703          	lbu	a4,2(a5)
   116d4:	0037c783          	lbu	a5,3(a5)
   116d8:	00c50023          	sb	a2,0(a0)
   116dc:	00d500a3          	sb	a3,1(a0)
   116e0:	00f501a3          	sb	a5,3(a0)
   116e4:	00e50123          	sb	a4,2(a0)
   116e8:	856a                	mv	a0,s10
   116ea:	0aa0d0ef          	jal	ra,1e794 <strlen>
   116ee:	01050793          	addi	a5,a0,16
   116f2:	9bc1                	andi	a5,a5,-16
   116f4:	40f10133          	sub	sp,sp,a5
   116f8:	8d8a                	mv	s11,sp
   116fa:	03a00913          	li	s2,58
   116fe:	000d4783          	lbu	a5,0(s10)
   11702:	13278263          	beq	a5,s2,11826 <__dcigettext+0x2e8>
   11706:	12079263          	bnez	a5,1182a <__dcigettext+0x2ec>
   1170a:	04300793          	li	a5,67
   1170e:	00fd9023          	sh	a5,0(s11)
   11712:	000dc783          	lbu	a5,0(s11)
   11716:	fbd7879b          	addiw	a5,a5,-67
   1171a:	e781                	bnez	a5,11722 <__dcigettext+0x1e4>
   1171c:	001dc783          	lbu	a5,1(s11)
   11720:	cf95                	beqz	a5,1175c <__dcigettext+0x21e>
   11722:	0004b7b7          	lui	a5,0x4b
   11726:	1f878593          	addi	a1,a5,504 # 4b1f8 <errstr.11076+0x88>
   1172a:	856e                	mv	a0,s11
   1172c:	6e50c0ef          	jal	ra,1e610 <strcmp>
   11730:	c515                	beqz	a0,1175c <__dcigettext+0x21e>
   11732:	86a6                	mv	a3,s1
   11734:	8666                	mv	a2,s9
   11736:	85ee                	mv	a1,s11
   11738:	855e                	mv	a0,s7
   1173a:	33c000ef          	jal	ra,11a76 <_nl_find_domain>
   1173e:	8b2a                	mv	s6,a0
   11740:	dd5d                	beqz	a0,116fe <__dcigettext+0x1c0>
   11742:	f4840713          	addi	a4,s0,-184
   11746:	4685                	li	a3,1
   11748:	8652                	mv	a2,s4
   1174a:	85a6                	mv	a1,s1
   1174c:	db4ff0ef          	jal	ra,10d00 <_nl_find_msg>
   11750:	87aa                	mv	a5,a0
   11752:	10050663          	beqz	a0,1185e <__dcigettext+0x320>
   11756:	577d                	li	a4,-1
   11758:	16e51063          	bne	a0,a4,118b8 <__dcigettext+0x37a>
   1175c:	f4043503          	ld	a0,-192(s0)
   11760:	0280c0ef          	jal	ra,1d788 <__free>
   11764:	020c0063          	beqz	s8,11784 <__dcigettext+0x246>
   11768:	06018513          	addi	a0,gp,96 # 6c170 <_nl_state_lock>
   1176c:	00000097          	auipc	ra,0x0
   11770:	000000e7          	jalr	zero # 0 <_nl_current_LC_CTYPE>
   11774:	000c0863          	beqz	s8,11784 <__dcigettext+0x246>
   11778:	57818513          	addi	a0,gp,1400 # 6c688 <__libc_setlocale_lock>
   1177c:	00000097          	auipc	ra,0x0
   11780:	000000e7          	jalr	zero # 0 <_nl_current_LC_CTYPE>
   11784:	f0843703          	ld	a4,-248(s0)
   11788:	02e22023          	sw	a4,32(tp) # 20 <__libc_errno>
   1178c:	f3843783          	ld	a5,-200(s0)
   11790:	e791                	bnez	a5,1179c <__dcigettext+0x25e>
   11792:	87d2                	mv	a5,s4
   11794:	a819                	j	117aa <__dcigettext+0x26c>
   11796:	f3843783          	ld	a5,-200(s0)
   1179a:	dfe5                	beqz	a5,11792 <__dcigettext+0x254>
   1179c:	f2043683          	ld	a3,-224(s0)
   117a0:	4705                	li	a4,1
   117a2:	f1843783          	ld	a5,-232(s0)
   117a6:	fee686e3          	beq	a3,a4,11792 <__dcigettext+0x254>
   117aa:	ef040113          	addi	sp,s0,-272
   117ae:	60b2                	ld	ra,264(sp)
   117b0:	6412                	ld	s0,256(sp)
   117b2:	74ee                	ld	s1,248(sp)
   117b4:	794e                	ld	s2,240(sp)
   117b6:	79ae                	ld	s3,232(sp)
   117b8:	7a0e                	ld	s4,224(sp)
   117ba:	6aee                	ld	s5,216(sp)
   117bc:	6b4e                	ld	s6,208(sp)
   117be:	6bae                	ld	s7,200(sp)
   117c0:	6c0e                	ld	s8,192(sp)
   117c2:	7cea                	ld	s9,184(sp)
   117c4:	7d4a                	ld	s10,176(sp)
   117c6:	7daa                	ld	s11,168(sp)
   117c8:	853e                	mv	a0,a5
   117ca:	6151                	addi	sp,sp,272
   117cc:	8082                	ret
   117ce:	4481                	li	s1,0
   117d0:	0004bbb7          	lui	s7,0x4b
   117d4:	200b8b93          	addi	s7,s7,512 # 4b200 <_nl_default_dirname>
   117d8:	bd95                	j	1164c <__dcigettext+0x10e>
   117da:	4581                	li	a1,0
   117dc:	2f30e0ef          	jal	ra,202ce <__getcwd>
   117e0:	892a                	mv	s2,a0
   117e2:	dd2d                	beqz	a0,1175c <__dcigettext+0x21e>
   117e4:	0004b5b7          	lui	a1,0x4b
   117e8:	86de                	mv	a3,s7
   117ea:	862a                	mv	a2,a0
   117ec:	1d858593          	addi	a1,a1,472 # 4b1d8 <errstr.11076+0x68>
   117f0:	f4040513          	addi	a0,s0,-192
   117f4:	5e8030ef          	jal	ra,14ddc <___asprintf>
   117f8:	8baa                	mv	s7,a0
   117fa:	854a                	mv	a0,s2
   117fc:	78d0b0ef          	jal	ra,1d788 <__free>
   11800:	f40bcee3          	bltz	s7,1175c <__dcigettext+0x21e>
   11804:	f4043b83          	ld	s7,-192(s0)
   11808:	b591                	j	1164c <__dcigettext+0x10e>
   1180a:	0004b537          	lui	a0,0x4b
   1180e:	1e050513          	addi	a0,a0,480 # 4b1e0 <errstr.11076+0x70>
   11812:	4b9020ef          	jal	ra,144ca <getenv>
   11816:	e60505e3          	beqz	a0,11680 <__dcigettext+0x142>
   1181a:	00054783          	lbu	a5,0(a0)
   1181e:	e60781e3          	beqz	a5,11680 <__dcigettext+0x142>
   11822:	8d2a                	mv	s10,a0
   11824:	bdb1                	j	11680 <__dcigettext+0x142>
   11826:	0d05                	addi	s10,s10,1
   11828:	bdd9                	j	116fe <__dcigettext+0x1c0>
   1182a:	876e                	mv	a4,s11
   1182c:	00f70023          	sb	a5,0(a4)
   11830:	001d4783          	lbu	a5,1(s10)
   11834:	0705                	addi	a4,a4,1
   11836:	0d05                	addi	s10,s10,1
   11838:	c399                	beqz	a5,1183e <__dcigettext+0x300>
   1183a:	ff2799e3          	bne	a5,s2,1182c <__dcigettext+0x2ee>
   1183e:	0006a7b7          	lui	a5,0x6a
   11842:	fb87a783          	lw	a5,-72(a5) # 69fb8 <__libc_enable_secure>
   11846:	00070023          	sb	zero,0(a4)
   1184a:	ec0784e3          	beqz	a5,11712 <__dcigettext+0x1d4>
   1184e:	02f00593          	li	a1,47
   11852:	856e                	mv	a0,s11
   11854:	4df0c0ef          	jal	ra,1e532 <strchr>
   11858:	ea0513e3          	bnez	a0,116fe <__dcigettext+0x1c0>
   1185c:	bd5d                	j	11712 <__dcigettext+0x1d4>
   1185e:	020b3503          	ld	a0,32(s6)
   11862:	e8050ee3          	beqz	a0,116fe <__dcigettext+0x1c0>
   11866:	028b0313          	addi	t1,s6,40
   1186a:	f2043823          	sd	zero,-208(s0)
   1186e:	a811                	j	11882 <__dcigettext+0x344>
   11870:	f3043783          	ld	a5,-208(s0)
   11874:	ff833503          	ld	a0,-8(t1)
   11878:	2785                	addiw	a5,a5,1
   1187a:	f2f43823          	sd	a5,-208(s0)
   1187e:	e80500e3          	beqz	a0,116fe <__dcigettext+0x1c0>
   11882:	0321                	addi	t1,t1,8
   11884:	f4840713          	addi	a4,s0,-184
   11888:	4685                	li	a3,1
   1188a:	8652                	mv	a2,s4
   1188c:	85a6                	mv	a1,s1
   1188e:	f2643423          	sd	t1,-216(s0)
   11892:	f0643023          	sd	t1,-256(s0)
   11896:	c6aff0ef          	jal	ra,10d00 <_nl_find_msg>
   1189a:	577d                	li	a4,-1
   1189c:	87aa                	mv	a5,a0
   1189e:	eae50fe3          	beq	a0,a4,1175c <__dcigettext+0x21e>
   118a2:	f2843303          	ld	t1,-216(s0)
   118a6:	d569                	beqz	a0,11870 <__dcigettext+0x332>
   118a8:	f3043703          	ld	a4,-208(s0)
   118ac:	00470513          	addi	a0,a4,4
   118b0:	050e                	slli	a0,a0,0x3
   118b2:	955a                	add	a0,a0,s6
   118b4:	00053b03          	ld	s6,0(a0)
   118b8:	f4043503          	ld	a0,-192(s0)
   118bc:	f2f43823          	sd	a5,-208(s0)
   118c0:	6c90b0ef          	jal	ra,1d788 <__free>
   118c4:	f1043703          	ld	a4,-240(s0)
   118c8:	f3043783          	ld	a5,-208(s0)
   118cc:	cb61                	beqz	a4,1199c <__dcigettext+0x45e>
   118ce:	f1043703          	ld	a4,-240(s0)
   118d2:	0006d6b7          	lui	a3,0x6d
   118d6:	e906a683          	lw	a3,-368(a3) # 6ce90 <_nl_msg_cat_cntr>
   118da:	6318                	ld	a4,0(a4)
   118dc:	cf14                	sw	a3,24(a4)
   118de:	f4843683          	ld	a3,-184(s0)
   118e2:	03673023          	sd	s6,32(a4)
   118e6:	f71c                	sd	a5,40(a4)
   118e8:	fb14                	sd	a3,48(a4)
   118ea:	f0843683          	ld	a3,-248(s0)
   118ee:	02d22023          	sw	a3,32(tp) # 20 <__libc_errno>
   118f2:	f3843703          	ld	a4,-200(s0)
   118f6:	eb41                	bnez	a4,11986 <__dcigettext+0x448>
   118f8:	ea0c09e3          	beqz	s8,117aa <__dcigettext+0x26c>
   118fc:	06018513          	addi	a0,gp,96 # 6c170 <_nl_state_lock>
   11900:	f2f43c23          	sd	a5,-200(s0)
   11904:	00000097          	auipc	ra,0x0
   11908:	000000e7          	jalr	zero # 0 <_nl_current_LC_CTYPE>
   1190c:	f3843783          	ld	a5,-200(s0)
   11910:	e80c0de3          	beqz	s8,117aa <__dcigettext+0x26c>
   11914:	57818513          	addi	a0,gp,1400 # 6c688 <__libc_setlocale_lock>
   11918:	00000097          	auipc	ra,0x0
   1191c:	000000e7          	jalr	zero # 0 <_nl_current_LC_CTYPE>
   11920:	f3843783          	ld	a5,-200(s0)
   11924:	b559                	j	117aa <__dcigettext+0x26c>
   11926:	8581b983          	ld	s3,-1960(gp) # 6b968 <_nl_current_default_domain>
   1192a:	b151                	j	115ae <__dcigettext+0x70>
   1192c:	4781                	li	a5,0
   1192e:	bdb5                	j	117aa <__dcigettext+0x26c>
   11930:	f3843683          	ld	a3,-200(s0)
   11934:	771c                	ld	a5,40(a4)
   11936:	ee85                	bnez	a3,1196e <__dcigettext+0x430>
   11938:	020c0663          	beqz	s8,11964 <__dcigettext+0x426>
   1193c:	06018513          	addi	a0,gp,96 # 6c170 <_nl_state_lock>
   11940:	f2f43c23          	sd	a5,-200(s0)
   11944:	00000097          	auipc	ra,0x0
   11948:	000000e7          	jalr	zero # 0 <_nl_current_LC_CTYPE>
   1194c:	f3843783          	ld	a5,-200(s0)
   11950:	000c0a63          	beqz	s8,11964 <__dcigettext+0x426>
   11954:	57818513          	addi	a0,gp,1400 # 6c688 <__libc_setlocale_lock>
   11958:	00000097          	auipc	ra,0x0
   1195c:	000000e7          	jalr	zero # 0 <_nl_current_LC_CTYPE>
   11960:	f3843783          	ld	a5,-200(s0)
   11964:	f0843683          	ld	a3,-248(s0)
   11968:	02d22023          	sw	a3,32(tp) # 20 <__libc_errno>
   1196c:	bd3d                	j	117aa <__dcigettext+0x26c>
   1196e:	730c                	ld	a1,32(a4)
   11970:	7b14                	ld	a3,48(a4)
   11972:	863e                	mv	a2,a5
   11974:	6988                	ld	a0,16(a1)
   11976:	f2043583          	ld	a1,-224(s0)
   1197a:	b3aff0ef          	jal	ra,10cb4 <plural_lookup.isra.0>
   1197e:	87aa                	mv	a5,a0
   11980:	fa0c1ee3          	bnez	s8,1193c <__dcigettext+0x3fe>
   11984:	b7c5                	j	11964 <__dcigettext+0x426>
   11986:	f4843683          	ld	a3,-184(s0)
   1198a:	010b3503          	ld	a0,16(s6)
   1198e:	f2043583          	ld	a1,-224(s0)
   11992:	863e                	mv	a2,a5
   11994:	b20ff0ef          	jal	ra,10cb4 <plural_lookup.isra.0>
   11998:	87aa                	mv	a5,a0
   1199a:	bfb9                	j	118f8 <__dcigettext+0x3ba>
   1199c:	8552                	mv	a0,s4
   1199e:	5f70c0ef          	jal	ra,1e794 <strlen>
   119a2:	ef843c83          	ld	s9,-264(s0)
   119a6:	84aa                	mv	s1,a0
   119a8:	0485                	addi	s1,s1,1
   119aa:	8566                	mv	a0,s9
   119ac:	5e90c0ef          	jal	ra,1e794 <strlen>
   119b0:	ef043b83          	ld	s7,-272(s0)
   119b4:	03ab8713          	addi	a4,s7,58
   119b8:	953a                	add	a0,a0,a4
   119ba:	9526                	add	a0,a0,s1
   119bc:	1510b0ef          	jal	ra,1d30c <__libc_malloc>
   119c0:	f3043783          	ld	a5,-208(s0)
   119c4:	892a                	mv	s2,a0
   119c6:	f20502e3          	beqz	a0,118ea <__dcigettext+0x3ac>
   119ca:	8626                	mv	a2,s1
   119cc:	85d2                	mv	a1,s4
   119ce:	03850513          	addi	a0,a0,56
   119d2:	1f90d0ef          	jal	ra,1f3ca <__mempcpy>
   119d6:	001b8a13          	addi	s4,s7,1
   119da:	84aa                	mv	s1,a0
   119dc:	8652                	mv	a2,s4
   119de:	85ce                	mv	a1,s3
   119e0:	2630d0ef          	jal	ra,1f442 <memcpy>
   119e4:	9a26                	add	s4,s4,s1
   119e6:	85e6                	mv	a1,s9
   119e8:	8552                	mv	a0,s4
   119ea:	4450c0ef          	jal	ra,1e62e <strcpy>
   119ee:	0006d737          	lui	a4,0x6d
   119f2:	e9072703          	lw	a4,-368(a4) # 6ce90 <_nl_msg_cat_cntr>
   119f6:	f3043783          	ld	a5,-208(s0)
   119fa:	00993023          	sd	s1,0(s2)
   119fe:	00e92c23          	sw	a4,24(s2)
   11a02:	f4843703          	ld	a4,-184(s0)
   11a06:	01592423          	sw	s5,8(s2)
   11a0a:	01493823          	sd	s4,16(s2)
   11a0e:	02e93823          	sd	a4,48(s2)
   11a12:	03693023          	sd	s6,32(s2)
   11a16:	02f93423          	sd	a5,40(s2)
   11a1a:	00000713          	li	a4,0
   11a1e:	cb09                	beqz	a4,11a30 <__dcigettext+0x4f2>
   11a20:	09818513          	addi	a0,gp,152 # 6c1a8 <tree_lock>
   11a24:	00000097          	auipc	ra,0x0
   11a28:	000000e7          	jalr	zero # 0 <_nl_current_LC_CTYPE>
   11a2c:	f3043783          	ld	a5,-208(s0)
   11a30:	f2f43823          	sd	a5,-208(s0)
   11a34:	67c5                	lui	a5,0x11
   11a36:	c6678613          	addi	a2,a5,-922 # 10c66 <transcmp>
   11a3a:	9e818593          	addi	a1,gp,-1560 # 6baf8 <root>
   11a3e:	854a                	mv	a0,s2
   11a40:	11e0f0ef          	jal	ra,20b5e <__tsearch>
   11a44:	f3043783          	ld	a5,-208(s0)
   11a48:	84aa                	mv	s1,a0
   11a4a:	000c0a63          	beqz	s8,11a5e <__dcigettext+0x520>
   11a4e:	09818513          	addi	a0,gp,152 # 6c1a8 <tree_lock>
   11a52:	00000097          	auipc	ra,0x0
   11a56:	000000e7          	jalr	zero # 0 <_nl_current_LC_CTYPE>
   11a5a:	f3043783          	ld	a5,-208(s0)
   11a5e:	c481                	beqz	s1,11a66 <__dcigettext+0x528>
   11a60:	6098                	ld	a4,0(s1)
   11a62:	e92704e3          	beq	a4,s2,118ea <__dcigettext+0x3ac>
   11a66:	854a                	mv	a0,s2
   11a68:	f2f43823          	sd	a5,-208(s0)
   11a6c:	51d0b0ef          	jal	ra,1d788 <__free>
   11a70:	f3043783          	ld	a5,-208(s0)
   11a74:	bd9d                	j	118ea <__dcigettext+0x3ac>

0000000000011a76 <_nl_find_domain>:
   11a76:	7135                	addi	sp,sp,-160
   11a78:	e14a                	sd	s2,128(sp)
   11a7a:	fcce                	sd	s3,120(sp)
   11a7c:	f8d2                	sd	s4,112(sp)
   11a7e:	f4d6                	sd	s5,104(sp)
   11a80:	ed06                	sd	ra,152(sp)
   11a82:	e922                	sd	s0,144(sp)
   11a84:	e526                	sd	s1,136(sp)
   11a86:	f0da                	sd	s6,96(sp)
   11a88:	ecde                	sd	s7,88(sp)
   11a8a:	e8e2                	sd	s8,80(sp)
   11a8c:	00000793          	li	a5,0
   11a90:	892a                	mv	s2,a0
   11a92:	89ae                	mv	s3,a1
   11a94:	8ab2                	mv	s5,a2
   11a96:	8a36                	mv	s4,a3
   11a98:	c799                	beqz	a5,11aa6 <_nl_find_domain+0x30>
   11a9a:	0d018513          	addi	a0,gp,208 # 6c1e0 <lock.10131>
   11a9e:	00000097          	auipc	ra,0x0
   11aa2:	000000e7          	jalr	zero # 0 <_nl_current_LC_CTYPE>
   11aa6:	854a                	mv	a0,s2
   11aa8:	4ed0c0ef          	jal	ra,1e794 <strlen>
   11aac:	00150613          	addi	a2,a0,1
   11ab0:	e802                	sd	zero,16(sp)
   11ab2:	e456                	sd	s5,8(sp)
   11ab4:	e002                	sd	zero,0(sp)
   11ab6:	4881                	li	a7,0
   11ab8:	4801                	li	a6,0
   11aba:	4781                	li	a5,0
   11abc:	874e                	mv	a4,s3
   11abe:	4681                	li	a3,0
   11ac0:	85ca                	mv	a1,s2
   11ac2:	9f018513          	addi	a0,gp,-1552 # 6bb00 <_nl_loaded_domains>
   11ac6:	6d8010ef          	jal	ra,1319e <_nl_make_l10nflist>
   11aca:	00000413          	li	s0,0
   11ace:	84aa                	mv	s1,a0
   11ad0:	c419                	beqz	s0,11ade <_nl_find_domain+0x68>
   11ad2:	0d018513          	addi	a0,gp,208 # 6c1e0 <lock.10131>
   11ad6:	00000097          	auipc	ra,0x0
   11ada:	000000e7          	jalr	zero # 0 <_nl_current_LC_CTYPE>
   11ade:	c8b1                	beqz	s1,11b32 <_nl_find_domain+0xbc>
   11ae0:	449c                	lw	a5,8(s1)
   11ae2:	04f05363          	blez	a5,11b28 <_nl_find_domain+0xb2>
   11ae6:	689c                	ld	a5,16(s1)
   11ae8:	cf91                	beqz	a5,11b04 <_nl_find_domain+0x8e>
   11aea:	60ea                	ld	ra,152(sp)
   11aec:	644a                	ld	s0,144(sp)
   11aee:	690a                	ld	s2,128(sp)
   11af0:	79e6                	ld	s3,120(sp)
   11af2:	7a46                	ld	s4,112(sp)
   11af4:	7aa6                	ld	s5,104(sp)
   11af6:	7b06                	ld	s6,96(sp)
   11af8:	6be6                	ld	s7,88(sp)
   11afa:	6c46                	ld	s8,80(sp)
   11afc:	8526                	mv	a0,s1
   11afe:	64aa                	ld	s1,136(sp)
   11b00:	610d                	addi	sp,sp,160
   11b02:	8082                	ret
   11b04:	7088                	ld	a0,32(s1)
   11b06:	d175                	beqz	a0,11aea <_nl_find_domain+0x74>
   11b08:	02048413          	addi	s0,s1,32
   11b0c:	a039                	j	11b1a <_nl_find_domain+0xa4>
   11b0e:	601c                	ld	a5,0(s0)
   11b10:	0421                	addi	s0,s0,8
   11b12:	6b9c                	ld	a5,16(a5)
   11b14:	fbf9                	bnez	a5,11aea <_nl_find_domain+0x74>
   11b16:	6008                	ld	a0,0(s0)
   11b18:	d969                	beqz	a0,11aea <_nl_find_domain+0x74>
   11b1a:	451c                	lw	a5,8(a0)
   11b1c:	fef049e3          	bgtz	a5,11b0e <_nl_find_domain+0x98>
   11b20:	85d2                	mv	a1,s4
   11b22:	0ea000ef          	jal	ra,11c0c <_nl_load_domain>
   11b26:	b7e5                	j	11b0e <_nl_find_domain+0x98>
   11b28:	85d2                	mv	a1,s4
   11b2a:	8526                	mv	a0,s1
   11b2c:	0e0000ef          	jal	ra,11c0c <_nl_load_domain>
   11b30:	bf5d                	j	11ae6 <_nl_find_domain+0x70>
   11b32:	854e                	mv	a0,s3
   11b34:	508010ef          	jal	ra,1303c <_nl_expand_alias>
   11b38:	8c2a                	mv	s8,a0
   11b3a:	cd11                	beqz	a0,11b56 <_nl_find_domain+0xe0>
   11b3c:	4590c0ef          	jal	ra,1e794 <strlen>
   11b40:	00150b93          	addi	s7,a0,1
   11b44:	855e                	mv	a0,s7
   11b46:	7c60b0ef          	jal	ra,1d30c <__libc_malloc>
   11b4a:	89aa                	mv	s3,a0
   11b4c:	dd59                	beqz	a0,11aea <_nl_find_domain+0x74>
   11b4e:	865e                	mv	a2,s7
   11b50:	85e2                	mv	a1,s8
   11b52:	0f10d0ef          	jal	ra,1f442 <memcpy>
   11b56:	00bc                	addi	a5,sp,72
   11b58:	0098                	addi	a4,sp,64
   11b5a:	1834                	addi	a3,sp,56
   11b5c:	1810                	addi	a2,sp,48
   11b5e:	102c                	addi	a1,sp,40
   11b60:	854e                	mv	a0,s3
   11b62:	2c9010ef          	jal	ra,1362a <_nl_explode_name>
   11b66:	57fd                	li	a5,-1
   11b68:	8baa                	mv	s7,a0
   11b6a:	f8f500e3          	beq	a0,a5,11aea <_nl_find_domain+0x74>
   11b6e:	00000793          	li	a5,0
   11b72:	c799                	beqz	a5,11b80 <_nl_find_domain+0x10a>
   11b74:	0d018513          	addi	a0,gp,208 # 6c1e0 <lock.10131>
   11b78:	00000097          	auipc	ra,0x0
   11b7c:	000000e7          	jalr	zero # 0 <_nl_current_LC_CTYPE>
   11b80:	854a                	mv	a0,s2
   11b82:	4130c0ef          	jal	ra,1e794 <strlen>
   11b86:	4685                	li	a3,1
   11b88:	e836                	sd	a3,16(sp)
   11b8a:	76c2                	ld	a3,48(sp)
   11b8c:	68a6                	ld	a7,72(sp)
   11b8e:	6806                	ld	a6,64(sp)
   11b90:	77e2                	ld	a5,56(sp)
   11b92:	7722                	ld	a4,40(sp)
   11b94:	e036                	sd	a3,0(sp)
   11b96:	00150613          	addi	a2,a0,1
   11b9a:	e456                	sd	s5,8(sp)
   11b9c:	86de                	mv	a3,s7
   11b9e:	85ca                	mv	a1,s2
   11ba0:	9f018513          	addi	a0,gp,-1552 # 6bb00 <_nl_loaded_domains>
   11ba4:	5fa010ef          	jal	ra,1319e <_nl_make_l10nflist>
   11ba8:	84aa                	mv	s1,a0
   11baa:	c419                	beqz	s0,11bb8 <_nl_find_domain+0x142>
   11bac:	0d018513          	addi	a0,gp,208 # 6c1e0 <lock.10131>
   11bb0:	00000097          	auipc	ra,0x0
   11bb4:	000000e7          	jalr	zero # 0 <_nl_current_LC_CTYPE>
   11bb8:	c899                	beqz	s1,11bce <_nl_find_domain+0x158>
   11bba:	449c                	lw	a5,8(s1)
   11bbc:	04f05363          	blez	a5,11c02 <_nl_find_domain+0x18c>
   11bc0:	689c                	ld	a5,16(s1)
   11bc2:	cf91                	beqz	a5,11bde <_nl_find_domain+0x168>
   11bc4:	000c0563          	beqz	s8,11bce <_nl_find_domain+0x158>
   11bc8:	854e                	mv	a0,s3
   11bca:	3bf0b0ef          	jal	ra,1d788 <__free>
   11bce:	001bfb93          	andi	s7,s7,1
   11bd2:	f00b8ce3          	beqz	s7,11aea <_nl_find_domain+0x74>
   11bd6:	6526                	ld	a0,72(sp)
   11bd8:	3b10b0ef          	jal	ra,1d788 <__free>
   11bdc:	b739                	j	11aea <_nl_find_domain+0x74>
   11bde:	7088                	ld	a0,32(s1)
   11be0:	d175                	beqz	a0,11bc4 <_nl_find_domain+0x14e>
   11be2:	02048413          	addi	s0,s1,32
   11be6:	a039                	j	11bf4 <_nl_find_domain+0x17e>
   11be8:	601c                	ld	a5,0(s0)
   11bea:	0421                	addi	s0,s0,8
   11bec:	6b9c                	ld	a5,16(a5)
   11bee:	fbf9                	bnez	a5,11bc4 <_nl_find_domain+0x14e>
   11bf0:	6008                	ld	a0,0(s0)
   11bf2:	d969                	beqz	a0,11bc4 <_nl_find_domain+0x14e>
   11bf4:	451c                	lw	a5,8(a0)
   11bf6:	fef049e3          	bgtz	a5,11be8 <_nl_find_domain+0x172>
   11bfa:	85d2                	mv	a1,s4
   11bfc:	010000ef          	jal	ra,11c0c <_nl_load_domain>
   11c00:	b7e5                	j	11be8 <_nl_find_domain+0x172>
   11c02:	85d2                	mv	a1,s4
   11c04:	8526                	mv	a0,s1
   11c06:	006000ef          	jal	ra,11c0c <_nl_load_domain>
   11c0a:	bf5d                	j	11bc0 <_nl_find_domain+0x14a>

0000000000011c0c <_nl_load_domain>:
   11c0c:	7125                	addi	sp,sp,-416
   11c0e:	fece                	sd	s3,376(sp)
   11c10:	eede                	sd	s7,344(sp)
   11c12:	10818b93          	addi	s7,gp,264 # 6c218 <lock.10038>
   11c16:	008bb783          	ld	a5,8(s7)
   11c1a:	eb22                	sd	s0,400(sp)
   11c1c:	e726                	sd	s1,392(sp)
   11c1e:	e34a                	sd	s2,384(sp)
   11c20:	ef06                	sd	ra,408(sp)
   11c22:	fad2                	sd	s4,368(sp)
   11c24:	f6d6                	sd	s5,360(sp)
   11c26:	f2da                	sd	s6,352(sp)
   11c28:	eae2                	sd	s8,336(sp)
   11c2a:	e6e6                	sd	s9,328(sp)
   11c2c:	e2ea                	sd	s10,320(sp)
   11c2e:	fe6e                	sd	s11,312(sp)
   11c30:	8f020493          	addi	s1,tp,-1808 # fffffffffffff8f0 <__BSS_END__+0xfffffffffff92878>
   11c34:	842a                	mv	s0,a0
   11c36:	892e                	mv	s2,a1
   11c38:	00978e63          	beq	a5,s1,11c54 <_nl_load_domain+0x48>
   11c3c:	4705                	li	a4,1
   11c3e:	100ba7af          	lr.w	a5,(s7)
   11c42:	e781                	bnez	a5,11c4a <_nl_load_domain+0x3e>
   11c44:	1ceba6af          	sc.w.aq	a3,a4,(s7)
   11c48:	fafd                	bnez	a3,11c3e <_nl_load_domain+0x32>
   11c4a:	2781                	sext.w	a5,a5
   11c4c:	3e079063          	bnez	a5,1202c <_nl_load_domain+0x420>
   11c50:	009bb423          	sd	s1,8(s7)
   11c54:	004ba603          	lw	a2,4(s7)
   11c58:	4418                	lw	a4,8(s0)
   11c5a:	0016069b          	addiw	a3,a2,1
   11c5e:	00dba223          	sw	a3,4(s7)
   11c62:	34071e63          	bnez	a4,11fbe <_nl_load_domain+0x3b2>
   11c66:	6008                	ld	a0,0(s0)
   11c68:	5b7d                	li	s6,-1
   11c6a:	01642423          	sw	s6,8(s0)
   11c6e:	00043823          	sd	zero,16(s0)
   11c72:	34050463          	beqz	a0,11fba <_nl_load_domain+0x3ae>
   11c76:	4581                	li	a1,0
   11c78:	2b90e0ef          	jal	ra,20730 <__open64_nocancel>
   11c7c:	8a2a                	mv	s4,a0
   11c7e:	37650c63          	beq	a0,s6,11ff6 <_nl_load_domain+0x3ea>
   11c82:	85aa                	mv	a1,a0
   11c84:	1910                	addi	a2,sp,176
   11c86:	4501                	li	a0,0
   11c88:	4540e0ef          	jal	ra,200dc <__fxstat>
   11c8c:	8c2a                	mv	s8,a0
   11c8e:	36051163          	bnez	a0,11ff0 <_nl_load_domain+0x3e4>
   11c92:	7a8e                	ld	s5,224(sp)
   11c94:	02f00793          	li	a5,47
   11c98:	3557fc63          	bgeu	a5,s5,11ff0 <_nl_load_domain+0x3e4>
   11c9c:	4781                	li	a5,0
   11c9e:	8752                	mv	a4,s4
   11ca0:	4689                	li	a3,2
   11ca2:	4605                	li	a2,1
   11ca4:	85d6                	mv	a1,s5
   11ca6:	4710e0ef          	jal	ra,20916 <__mmap64>
   11caa:	84aa                	mv	s1,a0
   11cac:	55650c63          	beq	a0,s6,12204 <_nl_load_domain+0x5f8>
   11cb0:	8552                	mv	a0,s4
   11cb2:	1ed0e0ef          	jal	ra,2069e <__close_nocancel>
   11cb6:	4098                	lw	a4,0(s1)
   11cb8:	950417b7          	lui	a5,0x95041
   11cbc:	2de78793          	addi	a5,a5,734 # ffffffff950412de <__BSS_END__+0xffffffff94fd4266>
   11cc0:	3af71563          	bne	a4,a5,1206a <_nl_load_domain+0x45e>
   11cc4:	4785                	li	a5,1
   11cc6:	e03e                	sd	a5,0(sp)
   11cc8:	0c800513          	li	a0,200
   11ccc:	6400b0ef          	jal	ra,1d30c <__libc_malloc>
   11cd0:	8caa                	mv	s9,a0
   11cd2:	32050263          	beqz	a0,11ff6 <_nl_load_domain+0x3ea>
   11cd6:	0044ab03          	lw	s6,4(s1)
   11cda:	6782                	ld	a5,0(sp)
   11cdc:	01943823          	sd	s9,16(s0)
   11ce0:	009cb023          	sd	s1,0(s9)
   11ce4:	00fca423          	sw	a5,8(s9)
   11ce8:	015cb823          	sd	s5,16(s9)
   11cec:	000cac23          	sw	zero,24(s9)
   11cf0:	020cb023          	sd	zero,32(s9)
   11cf4:	410b5693          	srai	a3,s6,0x10
   11cf8:	4705                	li	a4,1
   11cfa:	32d76e63          	bltu	a4,a3,12036 <_nl_load_domain+0x42a>
   11cfe:	00c4e683          	lwu	a3,12(s1)
   11d02:	0104e703          	lwu	a4,16(s1)
   11d06:	48dc                	lw	a5,20(s1)
   11d08:	4490                	lw	a2,8(s1)
   11d0a:	9726                	add	a4,a4,s1
   11d0c:	96a6                	add	a3,a3,s1
   11d0e:	02ecbc23          	sd	a4,56(s9)
   11d12:	1b42                	slli	s6,s6,0x30
   11d14:	f03e                	sd	a5,32(sp)
   11d16:	02cca423          	sw	a2,40(s9)
   11d1a:	02dcb823          	sd	a3,48(s9)
   11d1e:	04fcac23          	sw	a5,88(s9)
   11d22:	4709                	li	a4,2
   11d24:	030b5b13          	srli	s6,s6,0x30
   11d28:	22f77863          	bgeu	a4,a5,11f58 <_nl_load_domain+0x34c>
   11d2c:	0184e703          	lwu	a4,24(s1)
   11d30:	060ca423          	sw	zero,104(s9)
   11d34:	00e487b3          	add	a5,s1,a4
   11d38:	fc3e                	sd	a5,56(sp)
   11d3a:	06fcb023          	sd	a5,96(s9)
   11d3e:	220b0363          	beqz	s6,11f64 <_nl_load_domain+0x358>
   11d42:	50dc                	lw	a5,36(s1)
   11d44:	f83e                	sd	a5,48(sp)
   11d46:	20078f63          	beqz	a5,11f64 <_nl_load_domain+0x358>
   11d4a:	01c4ad03          	lw	s10,28(s1)
   11d4e:	0204ed83          	lwu	s11,32(s1)
   11d52:	95041b37          	lui	s6,0x95041
   11d56:	2deb0b13          	addi	s6,s6,734 # ffffffff950412de <__BSS_END__+0xffffffff94fd4266>
   11d5a:	020d1513          	slli	a0,s10,0x20
   11d5e:	45a1                	li	a1,8
   11d60:	9101                	srli	a0,a0,0x20
   11d62:	6a10b0ef          	jal	ra,1dc02 <__calloc>
   11d66:	9da6                	add	s11,s11,s1
   11d68:	8c2a                	mv	s8,a0
   11d6a:	2e050d63          	beqz	a0,12064 <_nl_load_domain+0x458>
   11d6e:	0e0d0f63          	beqz	s10,11e6c <_nl_load_domain+0x260>
   11d72:	0006c737          	lui	a4,0x6c
   11d76:	91073783          	ld	a5,-1776(a4) # 6b910 <__SDATA_BEGIN__>
   11d7a:	fffd089b          	addiw	a7,s10,-1
   11d7e:	1882                	slli	a7,a7,0x20
   11d80:	0208d893          	srli	a7,a7,0x20
   11d84:	008d8713          	addi	a4,s11,8
   11d88:	e53e                	sd	a5,136(sp)
   11d8a:	088e                	slli	a7,a7,0x3
   11d8c:	0004b7b7          	lui	a5,0x4b
   11d90:	27878793          	addi	a5,a5,632 # 4b278 <_nl_default_default_domain+0x60>
   11d94:	00e88633          	add	a2,a7,a4
   11d98:	0004b737          	lui	a4,0x4b
   11d9c:	f43e                	sd	a5,40(sp)
   11d9e:	24070793          	addi	a5,a4,576 # 4b240 <_nl_default_default_domain+0x28>
   11da2:	0004b737          	lui	a4,0x4b
   11da6:	e0be                	sd	a5,64(sp)
   11da8:	25870793          	addi	a5,a4,600 # 4b258 <_nl_default_default_domain+0x40>
   11dac:	0004b737          	lui	a4,0x4b
   11db0:	e4be                	sd	a5,72(sp)
   11db2:	25070793          	addi	a5,a4,592 # 4b250 <_nl_default_default_domain+0x38>
   11db6:	0004b737          	lui	a4,0x4b
   11dba:	e8be                	sd	a5,80(sp)
   11dbc:	23870793          	addi	a5,a4,568 # 4b238 <_nl_default_default_domain+0x20>
   11dc0:	0004b737          	lui	a4,0x4b
   11dc4:	ecbe                	sd	a5,88(sp)
   11dc6:	26870793          	addi	a5,a4,616 # 4b268 <_nl_default_default_domain+0x50>
   11dca:	0004b737          	lui	a4,0x4b
   11dce:	f0be                	sd	a5,96(sp)
   11dd0:	26070793          	addi	a5,a4,608 # 4b260 <_nl_default_default_domain+0x48>
   11dd4:	00061737          	lui	a4,0x61
   11dd8:	f4be                	sd	a5,104(sp)
   11dda:	d2870793          	addi	a5,a4,-728 # 60d28 <__PRETTY_FUNCTION__.11063+0x1b0>
   11dde:	0004b737          	lui	a4,0x4b
   11de2:	f8be                	sd	a5,112(sp)
   11de4:	23070793          	addi	a5,a4,560 # 4b230 <_nl_default_default_domain+0x18>
   11de8:	0004b737          	lui	a4,0x4b
   11dec:	95041337          	lui	t1,0x95041
   11df0:	fcbe                	sd	a5,120(sp)
   11df2:	22870793          	addi	a5,a4,552 # 4b228 <_nl_default_default_domain+0x10>
   11df6:	85aa                	mv	a1,a0
   11df8:	2de30a13          	addi	s4,t1,734 # ffffffff950412de <__BSS_END__+0xffffffff94fd4266>
   11dfc:	e13e                	sd	a5,128(sp)
   11dfe:	004da503          	lw	a0,4(s11)
   11e02:	000da703          	lw	a4,0(s11)
   11e06:	354b0563          	beq	s6,s4,12150 <_nl_load_domain+0x544>
   11e0a:	ec2e                	sd	a1,24(sp)
   11e0c:	e832                	sd	a2,16(sp)
   11e0e:	e43a                	sd	a4,8(sp)
   11e10:	624340ef          	jal	ra,46434 <__bswapsi2>
   11e14:	6722                	ld	a4,8(sp)
   11e16:	02051693          	slli	a3,a0,0x20
   11e1a:	9281                	srli	a3,a3,0x20
   11e1c:	96a6                	add	a3,a3,s1
   11e1e:	853a                	mv	a0,a4
   11e20:	e436                	sd	a3,8(sp)
   11e22:	612340ef          	jal	ra,46434 <__bswapsi2>
   11e26:	66a2                	ld	a3,8(sp)
   11e28:	6642                	ld	a2,16(sp)
   11e2a:	65e2                	ld	a1,24(sp)
   11e2c:	0005071b          	sext.w	a4,a0
   11e30:	44070663          	beqz	a4,1227c <_nl_load_domain+0x670>
   11e34:	377d                	addiw	a4,a4,-1
   11e36:	1702                	slli	a4,a4,0x20
   11e38:	9301                	srli	a4,a4,0x20
   11e3a:	9736                	add	a4,a4,a3
   11e3c:	00074503          	lbu	a0,0(a4)
   11e40:	42051e63          	bnez	a0,1227c <_nl_load_domain+0x670>
   11e44:	0006c703          	lbu	a4,0(a3)
   11e48:	05000e13          	li	t3,80
   11e4c:	31c70763          	beq	a4,t3,1215a <_nl_load_domain+0x54e>
   11e50:	04900513          	li	a0,73
   11e54:	42a71a63          	bne	a4,a0,12288 <_nl_load_domain+0x67c>
   11e58:	0016c683          	lbu	a3,1(a3)
   11e5c:	4701                	li	a4,0
   11e5e:	e291                	bnez	a3,11e62 <_nl_load_domain+0x256>
   11e60:	7722                	ld	a4,40(sp)
   11e62:	e198                	sd	a4,0(a1)
   11e64:	0da1                	addi	s11,s11,8
   11e66:	05a1                	addi	a1,a1,8
   11e68:	f9b61be3          	bne	a2,s11,11dfe <_nl_load_domain+0x1f2>
   11e6c:	950416b7          	lui	a3,0x95041
   11e70:	2de68693          	addi	a3,a3,734 # ffffffff950412de <__BSS_END__+0xffffffff94fd4266>
   11e74:	5488                	lw	a0,40(s1)
   11e76:	54d8                	lw	a4,44(s1)
   11e78:	48db0863          	beq	s6,a3,12308 <_nl_load_domain+0x6fc>
   11e7c:	e43a                	sd	a4,8(sp)
   11e7e:	5b6340ef          	jal	ra,46434 <__bswapsi2>
   11e82:	6722                	ld	a4,8(sp)
   11e84:	02051d93          	slli	s11,a0,0x20
   11e88:	020ddd93          	srli	s11,s11,0x20
   11e8c:	853a                	mv	a0,a4
   11e8e:	5a6340ef          	jal	ra,46434 <__bswapsi2>
   11e92:	02051693          	slli	a3,a0,0x20
   11e96:	9da6                	add	s11,s11,s1
   11e98:	9281                	srli	a3,a3,0x20
   11e9a:	77c2                	ld	a5,48(sp)
   11e9c:	02016603          	lwu	a2,32(sp)
   11ea0:	96a6                	add	a3,a3,s1
   11ea2:	fff7871b          	addiw	a4,a5,-1
   11ea6:	1702                	slli	a4,a4,0x20
   11ea8:	9301                	srli	a4,a4,0x20
   11eaa:	0705                	addi	a4,a4,1
   11eac:	070a                	slli	a4,a4,0x2
   11eae:	976e                	add	a4,a4,s11
   11eb0:	00261793          	slli	a5,a2,0x2
   11eb4:	e4ba                	sd	a4,72(sp)
   11eb6:	95041737          	lui	a4,0x95041
   11eba:	f4be                	sd	a5,104(sp)
   11ebc:	e8be                	sd	a5,80(sp)
   11ebe:	2de70793          	addi	a5,a4,734 # ffffffff950412de <__BSS_END__+0xffffffff94fd4266>
   11ec2:	f0ee                	sd	s11,96(sp)
   11ec4:	ecb6                	sd	a3,88(sp)
   11ec6:	f436                	sd	a3,40(sp)
   11ec8:	f86e                	sd	s11,48(sp)
   11eca:	e082                	sd	zero,64(sp)
   11ecc:	e43e                	sd	a5,8(sp)
   11ece:	e802                	sd	zero,16(sp)
   11ed0:	67a2                	ld	a5,8(sp)
   11ed2:	38fb0763          	beq	s6,a5,12260 <_nl_load_domain+0x654>
   11ed6:	67c2                	ld	a5,16(sp)
   11ed8:	40078863          	beqz	a5,122e8 <_nl_load_domain+0x6dc>
   11edc:	77a2                	ld	a5,40(sp)
   11ede:	4388                	lw	a0,0(a5)
   11ee0:	554340ef          	jal	ra,46434 <__bswapsi2>
   11ee4:	02051693          	slli	a3,a0,0x20
   11ee8:	9281                	srli	a3,a3,0x20
   11eea:	96a6                	add	a3,a3,s1
   11eec:	4688                	lw	a0,8(a3)
   11eee:	ec36                	sd	a3,24(sp)
   11ef0:	544340ef          	jal	ra,46434 <__bswapsi2>
   11ef4:	0005071b          	sext.w	a4,a0
   11ef8:	66e2                	ld	a3,24(sp)
   11efa:	0705                	addi	a4,a4,1
   11efc:	00e03733          	snez	a4,a4
   11f00:	4a01                	li	s4,0
   11f02:	38071563          	bnez	a4,1228c <_nl_load_domain+0x680>
   11f06:	67c2                	ld	a5,16(sp)
   11f08:	1114                	addi	a3,sp,160
   11f0a:	00379713          	slli	a4,a5,0x3
   11f0e:	9736                	add	a4,a4,a3
   11f10:	01473023          	sd	s4,0(a4)
   11f14:	4705                	li	a4,1
   11f16:	36e79063          	bne	a5,a4,12276 <_nl_load_domain+0x66a>
   11f1a:	6786                	ld	a5,64(sp)
   11f1c:	770a                	ld	a4,160(sp)
   11f1e:	76aa                	ld	a3,168(sp)
   11f20:	2785                	addiw	a5,a5,1
   11f22:	e0be                	sd	a5,64(sp)
   11f24:	67c6                	ld	a5,80(sp)
   11f26:	9736                	add	a4,a4,a3
   11f28:	97ba                	add	a5,a5,a4
   11f2a:	e8be                	sd	a5,80(sp)
   11f2c:	7722                	ld	a4,40(sp)
   11f2e:	77c2                	ld	a5,48(sp)
   11f30:	0711                	addi	a4,a4,4
   11f32:	f43a                	sd	a4,40(sp)
   11f34:	6726                	ld	a4,72(sp)
   11f36:	0791                	addi	a5,a5,4
   11f38:	f83e                	sd	a5,48(sp)
   11f3a:	f8f71ae3          	bne	a4,a5,11ece <_nl_load_domain+0x2c2>
   11f3e:	6786                	ld	a5,64(sp)
   11f40:	6c079063          	bnez	a5,12600 <_nl_load_domain+0x9f4>
   11f44:	040ca023          	sw	zero,64(s9)
   11f48:	040cb423          	sd	zero,72(s9)
   11f4c:	040cb823          	sd	zero,80(s9)
   11f50:	8562                	mv	a0,s8
   11f52:	0370b0ef          	jal	ra,1d788 <__free>
   11f56:	a829                	j	11f70 <_nl_load_domain+0x364>
   11f58:	060cb023          	sd	zero,96(s9)
   11f5c:	078ca423          	sw	s8,104(s9)
   11f60:	100b1263          	bnez	s6,12064 <_nl_load_domain+0x458>
   11f64:	040ca023          	sw	zero,64(s9)
   11f68:	040cb423          	sd	zero,72(s9)
   11f6c:	040cb823          	sd	zero,80(s9)
   11f70:	060cb823          	sd	zero,112(s9)
   11f74:	060cbc23          	sd	zero,120(s9)
   11f78:	00000713          	li	a4,0
   11f7c:	cb01                	beqz	a4,11f8c <_nl_load_domain+0x380>
   11f7e:	4581                	li	a1,0
   11f80:	080c8513          	addi	a0,s9,128
   11f84:	00000097          	auipc	ra,0x0
   11f88:	000000e7          	jalr	zero # 0 <_nl_current_LC_CTYPE>
   11f8c:	0005d637          	lui	a2,0x5d
   11f90:	1118                	addi	a4,sp,160
   11f92:	4681                	li	a3,0
   11f94:	eb060613          	addi	a2,a2,-336 # 5ceb0 <expected2.10177+0x8>
   11f98:	85ca                	mv	a1,s2
   11f9a:	8522                	mv	a0,s0
   11f9c:	d65fe0ef          	jal	ra,10d00 <_nl_find_msg>
   11fa0:	577d                	li	a4,-1
   11fa2:	34e50663          	beq	a0,a4,122ee <_nl_load_domain+0x6e2>
   11fa6:	0c0c8613          	addi	a2,s9,192
   11faa:	0b8c8593          	addi	a1,s9,184
   11fae:	65d010ef          	jal	ra,13e0a <__gettext_extract_plural>
   11fb2:	004ba783          	lw	a5,4(s7)
   11fb6:	fff7861b          	addiw	a2,a5,-1
   11fba:	4705                	li	a4,1
   11fbc:	c418                	sw	a4,8(s0)
   11fbe:	00cba223          	sw	a2,4(s7)
   11fc2:	ce1d                	beqz	a2,12000 <_nl_load_domain+0x3f4>
   11fc4:	60fa                	ld	ra,408(sp)
   11fc6:	645a                	ld	s0,400(sp)
   11fc8:	64ba                	ld	s1,392(sp)
   11fca:	691a                	ld	s2,384(sp)
   11fcc:	79f6                	ld	s3,376(sp)
   11fce:	7a56                	ld	s4,368(sp)
   11fd0:	7ab6                	ld	s5,360(sp)
   11fd2:	7b16                	ld	s6,352(sp)
   11fd4:	6bf6                	ld	s7,344(sp)
   11fd6:	6c56                	ld	s8,336(sp)
   11fd8:	6cb6                	ld	s9,328(sp)
   11fda:	6d16                	ld	s10,320(sp)
   11fdc:	7df2                	ld	s11,312(sp)
   11fde:	611d                	addi	sp,sp,416
   11fe0:	8082                	ret
   11fe2:	01651763          	bne	a0,s6,11ff0 <_nl_load_domain+0x3e4>
   11fe6:	02022783          	lw	a5,32(tp) # 20 <__libc_errno>
   11fea:	4711                	li	a4,4
   11fec:	22e78563          	beq	a5,a4,12216 <_nl_load_domain+0x60a>
   11ff0:	8552                	mv	a0,s4
   11ff2:	6ac0e0ef          	jal	ra,2069e <__close_nocancel>
   11ff6:	004ba783          	lw	a5,4(s7)
   11ffa:	fff7861b          	addiw	a2,a5,-1
   11ffe:	bf75                	j	11fba <_nl_load_domain+0x3ae>
   12000:	000bb423          	sd	zero,8(s7)
   12004:	87b2                	mv	a5,a2
   12006:	0f50000f          	fence	iorw,ow
   1200a:	08fba7af          	amoswap.w	a5,a5,(s7)
   1200e:	2781                	sext.w	a5,a5
   12010:	4705                	li	a4,1
   12012:	faf759e3          	bge	a4,a5,11fc4 <_nl_load_domain+0x3b8>
   12016:	06200893          	li	a7,98
   1201a:	10818513          	addi	a0,gp,264 # 6c218 <lock.10038>
   1201e:	08100593          	li	a1,129
   12022:	4605                	li	a2,1
   12024:	4681                	li	a3,0
   12026:	00000073          	ecall
   1202a:	bf69                	j	11fc4 <_nl_load_domain+0x3b8>
   1202c:	10818513          	addi	a0,gp,264 # 6c218 <lock.10038>
   12030:	5560f0ef          	jal	ra,21586 <__lll_lock_wait_private>
   12034:	b931                	j	11c50 <_nl_load_domain+0x44>
   12036:	4501                	li	a0,0
   12038:	7500b0ef          	jal	ra,1d788 <__free>
   1203c:	6782                	ld	a5,0(sp)
   1203e:	cf99                	beqz	a5,1205c <_nl_load_domain+0x450>
   12040:	85d6                	mv	a1,s5
   12042:	8526                	mv	a0,s1
   12044:	1010e0ef          	jal	ra,20944 <__munmap>
   12048:	8566                	mv	a0,s9
   1204a:	73e0b0ef          	jal	ra,1d788 <__free>
   1204e:	004ba783          	lw	a5,4(s7)
   12052:	00043823          	sd	zero,16(s0)
   12056:	fff7861b          	addiw	a2,a5,-1
   1205a:	b785                	j	11fba <_nl_load_domain+0x3ae>
   1205c:	8526                	mv	a0,s1
   1205e:	72a0b0ef          	jal	ra,1d788 <__free>
   12062:	b7dd                	j	12048 <_nl_load_domain+0x43c>
   12064:	020cb503          	ld	a0,32(s9)
   12068:	bfc1                	j	12038 <_nl_load_domain+0x42c>
   1206a:	de1207b7          	lui	a5,0xde120
   1206e:	4685                	li	a3,1
   12070:	49578793          	addi	a5,a5,1173 # ffffffffde120495 <__BSS_END__+0xffffffffde0b341d>
   12074:	e036                	sd	a3,0(sp)
   12076:	56f71c63          	bne	a4,a5,125ee <_nl_load_domain+0x9e2>
   1207a:	0c800513          	li	a0,200
   1207e:	28e0b0ef          	jal	ra,1d30c <__libc_malloc>
   12082:	8caa                	mv	s9,a0
   12084:	d92d                	beqz	a0,11ff6 <_nl_load_domain+0x3ea>
   12086:	6782                	ld	a5,0(sp)
   12088:	40c8                	lw	a0,4(s1)
   1208a:	4a05                	li	s4,1
   1208c:	01943823          	sd	s9,16(s0)
   12090:	009cb023          	sd	s1,0(s9)
   12094:	00fca423          	sw	a5,8(s9)
   12098:	015cb823          	sd	s5,16(s9)
   1209c:	014cac23          	sw	s4,24(s9)
   120a0:	020cb023          	sd	zero,32(s9)
   120a4:	390340ef          	jal	ra,46434 <__bswapsi2>
   120a8:	4105571b          	sraiw	a4,a0,0x10
   120ac:	00050b1b          	sext.w	s6,a0
   120b0:	f8ea63e3          	bltu	s4,a4,12036 <_nl_load_domain+0x42a>
   120b4:	4488                	lw	a0,8(s1)
   120b6:	1b42                	slli	s6,s6,0x30
   120b8:	030b5b13          	srli	s6,s6,0x30
   120bc:	378340ef          	jal	ra,46434 <__bswapsi2>
   120c0:	872a                	mv	a4,a0
   120c2:	44c8                	lw	a0,12(s1)
   120c4:	02eca423          	sw	a4,40(s9)
   120c8:	4c05                	li	s8,1
   120ca:	36a340ef          	jal	ra,46434 <__bswapsi2>
   120ce:	02051713          	slli	a4,a0,0x20
   120d2:	9301                	srli	a4,a4,0x20
   120d4:	4888                	lw	a0,16(s1)
   120d6:	9726                	add	a4,a4,s1
   120d8:	02ecb823          	sd	a4,48(s9)
   120dc:	358340ef          	jal	ra,46434 <__bswapsi2>
   120e0:	02051713          	slli	a4,a0,0x20
   120e4:	9301                	srli	a4,a4,0x20
   120e6:	48c8                	lw	a0,20(s1)
   120e8:	9726                	add	a4,a4,s1
   120ea:	02ecbc23          	sd	a4,56(s9)
   120ee:	346340ef          	jal	ra,46434 <__bswapsi2>
   120f2:	0005079b          	sext.w	a5,a0
   120f6:	f03e                	sd	a5,32(sp)
   120f8:	04acac23          	sw	a0,88(s9)
   120fc:	4709                	li	a4,2
   120fe:	e4f77de3          	bgeu	a4,a5,11f58 <_nl_load_domain+0x34c>
   12102:	4c88                	lw	a0,24(s1)
   12104:	330340ef          	jal	ra,46434 <__bswapsi2>
   12108:	1502                	slli	a0,a0,0x20
   1210a:	9101                	srli	a0,a0,0x20
   1210c:	00a487b3          	add	a5,s1,a0
   12110:	fc3e                	sd	a5,56(sp)
   12112:	06fcb023          	sd	a5,96(s9)
   12116:	074ca423          	sw	s4,104(s9)
   1211a:	e40b05e3          	beqz	s6,11f64 <_nl_load_domain+0x358>
   1211e:	50c8                	lw	a0,36(s1)
   12120:	314340ef          	jal	ra,46434 <__bswapsi2>
   12124:	0005079b          	sext.w	a5,a0
   12128:	f83e                	sd	a5,48(sp)
   1212a:	e2078de3          	beqz	a5,11f64 <_nl_load_domain+0x358>
   1212e:	4cc8                	lw	a0,28(s1)
   12130:	de120b37          	lui	s6,0xde120
   12134:	495b0b13          	addi	s6,s6,1173 # ffffffffde120495 <__BSS_END__+0xffffffffde0b341d>
   12138:	2fc340ef          	jal	ra,46434 <__bswapsi2>
   1213c:	00050d1b          	sext.w	s10,a0
   12140:	5088                	lw	a0,32(s1)
   12142:	2f2340ef          	jal	ra,46434 <__bswapsi2>
   12146:	02051d93          	slli	s11,a0,0x20
   1214a:	020ddd93          	srli	s11,s11,0x20
   1214e:	b131                	j	11d5a <_nl_load_domain+0x14e>
   12150:	1502                	slli	a0,a0,0x20
   12152:	9101                	srli	a0,a0,0x20
   12154:	00a486b3          	add	a3,s1,a0
   12158:	b9e1                	j	11e30 <_nl_load_domain+0x224>
   1215a:	0016ce83          	lbu	t4,1(a3)
   1215e:	05200e13          	li	t3,82
   12162:	4701                	li	a4,0
   12164:	cfce9fe3          	bne	t4,t3,11e62 <_nl_load_domain+0x256>
   12168:	0026ce83          	lbu	t4,2(a3)
   1216c:	04900e13          	li	t3,73
   12170:	872a                	mv	a4,a0
   12172:	cfce98e3          	bne	t4,t3,11e62 <_nl_load_domain+0x256>
   12176:	0036ce83          	lbu	t4,3(a3)
   1217a:	02000f13          	li	t5,32
   1217e:	fa8e8e1b          	addiw	t3,t4,-88
   12182:	0ffe7e13          	andi	t3,t3,255
   12186:	cdcf6ee3          	bltu	t5,t3,11e62 <_nl_load_domain+0x256>
   1218a:	67aa                	ld	a5,136(sp)
   1218c:	01c7de33          	srl	t3,a5,t3
   12190:	001e7e13          	andi	t3,t3,1
   12194:	cc0e07e3          	beqz	t3,11e62 <_nl_load_domain+0x256>
   12198:	0046c503          	lbu	a0,4(a3)
   1219c:	03800e13          	li	t3,56
   121a0:	35c50f63          	beq	a0,t3,124fe <_nl_load_domain+0x8f2>
   121a4:	03100e13          	li	t3,49
   121a8:	39c50c63          	beq	a0,t3,12540 <_nl_load_domain+0x934>
   121ac:	03300713          	li	a4,51
   121b0:	16e51463          	bne	a0,a4,12318 <_nl_load_domain+0x70c>
   121b4:	0056ce03          	lbu	t3,5(a3)
   121b8:	03200513          	li	a0,50
   121bc:	4701                	li	a4,0
   121be:	caae12e3          	bne	t3,a0,11e62 <_nl_load_domain+0x256>
   121c2:	0066c683          	lbu	a3,6(a3)
   121c6:	c8069ee3          	bnez	a3,11e62 <_nl_load_domain+0x256>
   121ca:	06400713          	li	a4,100
   121ce:	76ee8863          	beq	t4,a4,1293e <_nl_load_domain+0xd32>
   121d2:	06900713          	li	a4,105
   121d6:	74ee8e63          	beq	t4,a4,12932 <_nl_load_domain+0xd26>
   121da:	06f00713          	li	a4,111
   121de:	74ee8763          	beq	t4,a4,1292c <_nl_load_domain+0xd20>
   121e2:	07500713          	li	a4,117
   121e6:	7cee8263          	beq	t4,a4,129aa <_nl_load_domain+0xd9e>
   121ea:	07800713          	li	a4,120
   121ee:	72ee8963          	beq	t4,a4,12920 <_nl_load_domain+0xd14>
   121f2:	05800713          	li	a4,88
   121f6:	2cee96e3          	bne	t4,a4,12cc2 <_nl_load_domain+0x10b6>
   121fa:	0005b737          	lui	a4,0x5b
   121fe:	16070713          	addi	a4,a4,352 # 5b160 <__strtol_ul_max_tab+0x1e8>
   12202:	b185                	j	11e62 <_nl_load_domain+0x256>
   12204:	8556                	mv	a0,s5
   12206:	1060b0ef          	jal	ra,1d30c <__libc_malloc>
   1220a:	84aa                	mv	s1,a0
   1220c:	de0502e3          	beqz	a0,11ff0 <_nl_load_domain+0x3e4>
   12210:	8daa                	mv	s11,a0
   12212:	8d56                	mv	s10,s5
   12214:	5b7d                	li	s6,-1
   12216:	866a                	mv	a2,s10
   12218:	85ee                	mv	a1,s11
   1221a:	8552                	mv	a0,s4
   1221c:	5da0e0ef          	jal	ra,207f6 <__read_nocancel>
   12220:	dca051e3          	blez	a0,11fe2 <_nl_load_domain+0x3d6>
   12224:	40ad0d33          	sub	s10,s10,a0
   12228:	9daa                	add	s11,s11,a0
   1222a:	fe0d16e3          	bnez	s10,12216 <_nl_load_domain+0x60a>
   1222e:	8552                	mv	a0,s4
   12230:	46e0e0ef          	jal	ra,2069e <__close_nocancel>
   12234:	4098                	lw	a4,0(s1)
   12236:	950417b7          	lui	a5,0x95041
   1223a:	2de78793          	addi	a5,a5,734 # ffffffff950412de <__BSS_END__+0xffffffff94fd4266>
   1223e:	e002                	sd	zero,0(sp)
   12240:	a8f704e3          	beq	a4,a5,11cc8 <_nl_load_domain+0xbc>
   12244:	de1207b7          	lui	a5,0xde120
   12248:	49578793          	addi	a5,a5,1173 # ffffffffde120495 <__BSS_END__+0xffffffffde0b341d>
   1224c:	e2f707e3          	beq	a4,a5,1207a <_nl_load_domain+0x46e>
   12250:	8526                	mv	a0,s1
   12252:	5360b0ef          	jal	ra,1d788 <__free>
   12256:	004ba783          	lw	a5,4(s7)
   1225a:	fff7861b          	addiw	a2,a5,-1
   1225e:	bbb1                	j	11fba <_nl_load_domain+0x3ae>
   12260:	67c2                	ld	a5,16(sp)
   12262:	cfbd                	beqz	a5,122e0 <_nl_load_domain+0x6d4>
   12264:	77a2                	ld	a5,40(sp)
   12266:	0007e683          	lwu	a3,0(a5)
   1226a:	96a6                	add	a3,a3,s1
   1226c:	4698                	lw	a4,8(a3)
   1226e:	0705                	addi	a4,a4,1
   12270:	00e03733          	snez	a4,a4
   12274:	b171                	j	11f00 <_nl_load_domain+0x2f4>
   12276:	4785                	li	a5,1
   12278:	e83e                	sd	a5,16(sp)
   1227a:	b999                	j	11ed0 <_nl_load_domain+0x2c4>
   1227c:	8562                	mv	a0,s8
   1227e:	50a0b0ef          	jal	ra,1d788 <__free>
   12282:	020cb503          	ld	a0,32(s9)
   12286:	bb4d                	j	12038 <_nl_load_domain+0x42c>
   12288:	4701                	li	a4,0
   1228a:	bee1                	j	11e62 <_nl_load_domain+0x256>
   1228c:	00468d93          	addi	s11,a3,4
   12290:	a82d                	j	122ca <_nl_load_domain+0x6be>
   12292:	ec3a                	sd	a4,24(sp)
   12294:	1a0340ef          	jal	ra,46434 <__bswapsi2>
   12298:	6762                	ld	a4,24(sp)
   1229a:	02051613          	slli	a2,a0,0x20
   1229e:	9201                	srli	a2,a2,0x20
   122a0:	853a                	mv	a0,a4
   122a2:	9a32                	add	s4,s4,a2
   122a4:	190340ef          	jal	ra,46434 <__bswapsi2>
   122a8:	0005071b          	sext.w	a4,a0
   122ac:	57fd                	li	a5,-1
   122ae:	c4f70ce3          	beq	a4,a5,11f06 <_nl_load_domain+0x2fa>
   122b2:	fda775e3          	bgeu	a4,s10,1227c <_nl_load_domain+0x670>
   122b6:	1702                	slli	a4,a4,0x20
   122b8:	8375                	srli	a4,a4,0x1d
   122ba:	9762                	add	a4,a4,s8
   122bc:	6308                	ld	a0,0(a4)
   122be:	c60507e3          	beqz	a0,11f2c <_nl_load_domain+0x320>
   122c2:	4d20c0ef          	jal	ra,1e794 <strlen>
   122c6:	9a2a                	add	s4,s4,a0
   122c8:	0da1                	addi	s11,s11,8
   122ca:	67a2                	ld	a5,8(sp)
   122cc:	000da503          	lw	a0,0(s11)
   122d0:	004da703          	lw	a4,4(s11)
   122d4:	fafb1fe3          	bne	s6,a5,12292 <_nl_load_domain+0x686>
   122d8:	1502                	slli	a0,a0,0x20
   122da:	9101                	srli	a0,a0,0x20
   122dc:	9a2a                	add	s4,s4,a0
   122de:	b7f9                	j	122ac <_nl_load_domain+0x6a0>
   122e0:	77c2                	ld	a5,48(sp)
   122e2:	0007e683          	lwu	a3,0(a5)
   122e6:	b751                	j	1226a <_nl_load_domain+0x65e>
   122e8:	77c2                	ld	a5,48(sp)
   122ea:	4388                	lw	a0,0(a5)
   122ec:	bed5                	j	11ee0 <_nl_load_domain+0x2d4>
   122ee:	00000713          	li	a4,0
   122f2:	d60709e3          	beqz	a4,12064 <_nl_load_domain+0x458>
   122f6:	080c8513          	addi	a0,s9,128
   122fa:	00000097          	auipc	ra,0x0
   122fe:	000000e7          	jalr	zero # 0 <_nl_current_LC_CTYPE>
   12302:	020cb503          	ld	a0,32(s9)
   12306:	bb0d                	j	12038 <_nl_load_domain+0x42c>
   12308:	1502                	slli	a0,a0,0x20
   1230a:	9101                	srli	a0,a0,0x20
   1230c:	02071693          	slli	a3,a4,0x20
   12310:	00a48db3          	add	s11,s1,a0
   12314:	9281                	srli	a3,a3,0x20
   12316:	b651                	j	11e9a <_nl_load_domain+0x28e>
   12318:	03600e13          	li	t3,54
   1231c:	05c51763          	bne	a0,t3,1236a <_nl_load_domain+0x75e>
   12320:	0056ce03          	lbu	t3,5(a3)
   12324:	03400513          	li	a0,52
   12328:	4701                	li	a4,0
   1232a:	b2ae1ce3          	bne	t3,a0,11e62 <_nl_load_domain+0x256>
   1232e:	0066c683          	lbu	a3,6(a3)
   12332:	b20698e3          	bnez	a3,11e62 <_nl_load_domain+0x256>
   12336:	06400713          	li	a4,100
   1233a:	60ee8b63          	beq	t4,a4,12950 <_nl_load_domain+0xd44>
   1233e:	06900713          	li	a4,105
   12342:	60ee8463          	beq	t4,a4,1294a <_nl_load_domain+0xd3e>
   12346:	06f00713          	li	a4,111
   1234a:	5eee8d63          	beq	t4,a4,12944 <_nl_load_domain+0xd38>
   1234e:	07500713          	li	a4,117
   12352:	62ee8763          	beq	t4,a4,12980 <_nl_load_domain+0xd74>
   12356:	07800713          	li	a4,120
   1235a:	5cee8f63          	beq	t4,a4,12938 <_nl_load_domain+0xd2c>
   1235e:	05800713          	li	a4,88
   12362:	16ee90e3          	bne	t4,a4,12cc2 <_nl_load_domain+0x10b6>
   12366:	7726                	ld	a4,104(sp)
   12368:	bced                	j	11e62 <_nl_load_domain+0x256>
   1236a:	04c00713          	li	a4,76
   1236e:	0ae51063          	bne	a0,a4,1240e <_nl_load_domain+0x802>
   12372:	0056cf03          	lbu	t5,5(a3)
   12376:	04500513          	li	a0,69
   1237a:	4701                	li	a4,0
   1237c:	aeaf13e3          	bne	t5,a0,11e62 <_nl_load_domain+0x256>
   12380:	0066cf03          	lbu	t5,6(a3)
   12384:	04100513          	li	a0,65
   12388:	acaf1de3          	bne	t5,a0,11e62 <_nl_load_domain+0x256>
   1238c:	0076cf03          	lbu	t5,7(a3)
   12390:	05300513          	li	a0,83
   12394:	acaf17e3          	bne	t5,a0,11e62 <_nl_load_domain+0x256>
   12398:	0086cf03          	lbu	t5,8(a3)
   1239c:	05400513          	li	a0,84
   123a0:	acaf11e3          	bne	t5,a0,11e62 <_nl_load_domain+0x256>
   123a4:	0096c503          	lbu	a0,9(a3)
   123a8:	03800f13          	li	t5,56
   123ac:	05e50de3          	beq	a0,t5,12c06 <_nl_load_domain+0xffa>
   123b0:	03100f13          	li	t5,49
   123b4:	01e504e3          	beq	a0,t5,12bbc <_nl_load_domain+0xfb0>
   123b8:	03300f13          	li	t5,51
   123bc:	7be51863          	bne	a0,t5,12b6c <_nl_load_domain+0xf60>
   123c0:	00a6ce03          	lbu	t3,10(a3)
   123c4:	03200513          	li	a0,50
   123c8:	a8ae1de3          	bne	t3,a0,11e62 <_nl_load_domain+0x256>
   123cc:	00b6c703          	lbu	a4,11(a3)
   123d0:	78071b63          	bnez	a4,12b66 <_nl_load_domain+0xf5a>
   123d4:	06400713          	li	a4,100
   123d8:	78ee8463          	beq	t4,a4,12b60 <_nl_load_domain+0xf54>
   123dc:	06900713          	li	a4,105
   123e0:	76ee8d63          	beq	t4,a4,12b5a <_nl_load_domain+0xf4e>
   123e4:	06f00713          	li	a4,111
   123e8:	76ee8663          	beq	t4,a4,12b54 <_nl_load_domain+0xf48>
   123ec:	07500713          	li	a4,117
   123f0:	74ee8c63          	beq	t4,a4,12b48 <_nl_load_domain+0xf3c>
   123f4:	07800713          	li	a4,120
   123f8:	58ee8d63          	beq	t4,a4,12992 <_nl_load_domain+0xd86>
   123fc:	05800713          	li	a4,88
   12400:	0cee91e3          	bne	t4,a4,12cc2 <_nl_load_domain+0x10b6>
   12404:	0005b737          	lui	a4,0x5b
   12408:	16070713          	addi	a4,a4,352 # 5b160 <__strtol_ul_max_tab+0x1e8>
   1240c:	bc99                	j	11e62 <_nl_load_domain+0x256>
   1240e:	04600713          	li	a4,70
   12412:	08e51763          	bne	a0,a4,124a0 <_nl_load_domain+0x894>
   12416:	0056cf03          	lbu	t5,5(a3)
   1241a:	04100513          	li	a0,65
   1241e:	4701                	li	a4,0
   12420:	a4af11e3          	bne	t5,a0,11e62 <_nl_load_domain+0x256>
   12424:	0066cf03          	lbu	t5,6(a3)
   12428:	05300513          	li	a0,83
   1242c:	a2af1be3          	bne	t5,a0,11e62 <_nl_load_domain+0x256>
   12430:	0076cf03          	lbu	t5,7(a3)
   12434:	05400513          	li	a0,84
   12438:	a2af15e3          	bne	t5,a0,11e62 <_nl_load_domain+0x256>
   1243c:	0086c503          	lbu	a0,8(a3)
   12440:	03800f13          	li	t5,56
   12444:	63e50263          	beq	a0,t5,12a68 <_nl_load_domain+0xe5c>
   12448:	03100f13          	li	t5,49
   1244c:	5de50c63          	beq	a0,t5,12a24 <_nl_load_domain+0xe18>
   12450:	03300f13          	li	t5,51
   12454:	59e51063          	bne	a0,t5,129d4 <_nl_load_domain+0xdc8>
   12458:	0096ce03          	lbu	t3,9(a3)
   1245c:	03200513          	li	a0,50
   12460:	a0ae11e3          	bne	t3,a0,11e62 <_nl_load_domain+0x256>
   12464:	00a6c703          	lbu	a4,10(a3)
   12468:	56071363          	bnez	a4,129ce <_nl_load_domain+0xdc2>
   1246c:	06400713          	li	a4,100
   12470:	54ee8c63          	beq	t4,a4,129c8 <_nl_load_domain+0xdbc>
   12474:	06900713          	li	a4,105
   12478:	54ee8563          	beq	t4,a4,129c2 <_nl_load_domain+0xdb6>
   1247c:	06f00713          	li	a4,111
   12480:	52ee8e63          	beq	t4,a4,129bc <_nl_load_domain+0xdb0>
   12484:	07500713          	li	a4,117
   12488:	52ee8763          	beq	t4,a4,129b6 <_nl_load_domain+0xdaa>
   1248c:	07800713          	li	a4,120
   12490:	50ee8a63          	beq	t4,a4,129a4 <_nl_load_domain+0xd98>
   12494:	05800713          	li	a4,88
   12498:	02ee95e3          	bne	t4,a4,12cc2 <_nl_load_domain+0x10b6>
   1249c:	7726                	ld	a4,104(sp)
   1249e:	b2d1                	j	11e62 <_nl_load_domain+0x256>
   124a0:	04d00713          	li	a4,77
   124a4:	0ee51563          	bne	a0,a4,1258e <_nl_load_domain+0x982>
   124a8:	0056ce03          	lbu	t3,5(a3)
   124ac:	04100513          	li	a0,65
   124b0:	4701                	li	a4,0
   124b2:	9aae18e3          	bne	t3,a0,11e62 <_nl_load_domain+0x256>
   124b6:	0066ce03          	lbu	t3,6(a3)
   124ba:	05800513          	li	a0,88
   124be:	9aae12e3          	bne	t3,a0,11e62 <_nl_load_domain+0x256>
   124c2:	0076c683          	lbu	a3,7(a3)
   124c6:	98069ee3          	bnez	a3,11e62 <_nl_load_domain+0x256>
   124ca:	06400713          	li	a4,100
   124ce:	4cee8863          	beq	t4,a4,1299e <_nl_load_domain+0xd92>
   124d2:	06900713          	li	a4,105
   124d6:	4aee8b63          	beq	t4,a4,1298c <_nl_load_domain+0xd80>
   124da:	06f00713          	li	a4,111
   124de:	4aee8463          	beq	t4,a4,12986 <_nl_load_domain+0xd7a>
   124e2:	07500713          	li	a4,117
   124e6:	62ee8c63          	beq	t4,a4,12b1e <_nl_load_domain+0xf12>
   124ea:	07800713          	li	a4,120
   124ee:	62ee8563          	beq	t4,a4,12b18 <_nl_load_domain+0xf0c>
   124f2:	05800713          	li	a4,88
   124f6:	7cee9663          	bne	t4,a4,12cc2 <_nl_load_domain+0x10b6>
   124fa:	7726                	ld	a4,104(sp)
   124fc:	b29d                	j	11e62 <_nl_load_domain+0x256>
   124fe:	0056c683          	lbu	a3,5(a3)
   12502:	960690e3          	bnez	a3,11e62 <_nl_load_domain+0x256>
   12506:	06400713          	li	a4,100
   1250a:	3eee8963          	beq	t4,a4,128fc <_nl_load_domain+0xcf0>
   1250e:	06900713          	li	a4,105
   12512:	3eee8263          	beq	t4,a4,128f6 <_nl_load_domain+0xcea>
   12516:	06f00713          	li	a4,111
   1251a:	3eee8a63          	beq	t4,a4,1290e <_nl_load_domain+0xd02>
   1251e:	07500713          	li	a4,117
   12522:	3eee8063          	beq	t4,a4,12902 <_nl_load_domain+0xcf6>
   12526:	07800713          	li	a4,120
   1252a:	3eee8563          	beq	t4,a4,12914 <_nl_load_domain+0xd08>
   1252e:	05800713          	li	a4,88
   12532:	78ee9863          	bne	t4,a4,12cc2 <_nl_load_domain+0x10b6>
   12536:	0005b737          	lui	a4,0x5b
   1253a:	16070713          	addi	a4,a4,352 # 5b160 <__strtol_ul_max_tab+0x1e8>
   1253e:	b215                	j	11e62 <_nl_load_domain+0x256>
   12540:	0056ce03          	lbu	t3,5(a3)
   12544:	03600513          	li	a0,54
   12548:	90ae1de3          	bne	t3,a0,11e62 <_nl_load_domain+0x256>
   1254c:	0066c703          	lbu	a4,6(a3)
   12550:	3a071063          	bnez	a4,128f0 <_nl_load_domain+0xce4>
   12554:	06400713          	li	a4,100
   12558:	3eee8f63          	beq	t4,a4,12956 <_nl_load_domain+0xd4a>
   1255c:	06900713          	li	a4,105
   12560:	40ee8163          	beq	t4,a4,12962 <_nl_load_domain+0xd56>
   12564:	06f00713          	li	a4,111
   12568:	3eee8a63          	beq	t4,a4,1295c <_nl_load_domain+0xd50>
   1256c:	07500713          	li	a4,117
   12570:	40ee8263          	beq	t4,a4,12974 <_nl_load_domain+0xd68>
   12574:	07800713          	li	a4,120
   12578:	3eee8863          	beq	t4,a4,12968 <_nl_load_domain+0xd5c>
   1257c:	05800713          	li	a4,88
   12580:	74ee9163          	bne	t4,a4,12cc2 <_nl_load_domain+0x10b6>
   12584:	0005b737          	lui	a4,0x5b
   12588:	16070713          	addi	a4,a4,352 # 5b160 <__strtol_ul_max_tab+0x1e8>
   1258c:	b8d9                	j	11e62 <_nl_load_domain+0x256>
   1258e:	05000713          	li	a4,80
   12592:	5ae51863          	bne	a0,a4,12b42 <_nl_load_domain+0xf36>
   12596:	0056ce03          	lbu	t3,5(a3)
   1259a:	05400513          	li	a0,84
   1259e:	4701                	li	a4,0
   125a0:	8cae11e3          	bne	t3,a0,11e62 <_nl_load_domain+0x256>
   125a4:	0066ce03          	lbu	t3,6(a3)
   125a8:	05200513          	li	a0,82
   125ac:	8aae1be3          	bne	t3,a0,11e62 <_nl_load_domain+0x256>
   125b0:	0076c683          	lbu	a3,7(a3)
   125b4:	8a0697e3          	bnez	a3,11e62 <_nl_load_domain+0x256>
   125b8:	06400713          	li	a4,100
   125bc:	58ee8063          	beq	t4,a4,12b3c <_nl_load_domain+0xf30>
   125c0:	06900713          	li	a4,105
   125c4:	56ee8963          	beq	t4,a4,12b36 <_nl_load_domain+0xf2a>
   125c8:	06f00713          	li	a4,111
   125cc:	56ee8263          	beq	t4,a4,12b30 <_nl_load_domain+0xf24>
   125d0:	07500713          	li	a4,117
   125d4:	54ee8b63          	beq	t4,a4,12b2a <_nl_load_domain+0xf1e>
   125d8:	07800713          	li	a4,120
   125dc:	54ee8463          	beq	t4,a4,12b24 <_nl_load_domain+0xf18>
   125e0:	05800713          	li	a4,88
   125e4:	6cee9f63          	bne	t4,a4,12cc2 <_nl_load_domain+0x10b6>
   125e8:	7726                	ld	a4,104(sp)
   125ea:	879ff06f          	j	11e62 <_nl_load_domain+0x256>
   125ee:	85d6                	mv	a1,s5
   125f0:	8526                	mv	a0,s1
   125f2:	3520e0ef          	jal	ra,20944 <__munmap>
   125f6:	004ba783          	lw	a5,4(s7)
   125fa:	fff7861b          	addiw	a2,a5,-1
   125fe:	ba75                	j	11fba <_nl_load_domain+0x3ae>
   12600:	0017951b          	slliw	a0,a5,0x1
   12604:	67c6                	ld	a5,80(sp)
   12606:	1502                	slli	a0,a0,0x20
   12608:	8171                	srli	a0,a0,0x1c
   1260a:	953e                	add	a0,a0,a5
   1260c:	5010a0ef          	jal	ra,1d30c <__libc_malloc>
   12610:	fcaa                	sd	a0,120(sp)
   12612:	a40509e3          	beqz	a0,12064 <_nl_load_domain+0x458>
   12616:	04016a03          	lwu	s4,64(sp)
   1261a:	7766                	ld	a4,120(sp)
   1261c:	95041d37          	lui	s10,0x95041
   12620:	0a12                	slli	s4,s4,0x4
   12622:	014707b3          	add	a5,a4,s4
   12626:	9a3e                	add	s4,s4,a5
   12628:	ed3e                	sd	a5,152(sp)
   1262a:	77a6                	ld	a5,104(sp)
   1262c:	02ecb023          	sd	a4,32(s9)
   12630:	f882                	sd	zero,112(sp)
   12632:	97d2                	add	a5,a5,s4
   12634:	e83e                	sd	a5,16(sp)
   12636:	2ded0d13          	addi	s10,s10,734 # ffffffff950412de <__BSS_END__+0xffffffff94fd4266>
   1263a:	5dfd                	li	s11,-1
   1263c:	e402                	sd	zero,8(sp)
   1263e:	67a2                	ld	a5,8(sp)
   12640:	17ab0363          	beq	s6,s10,127a6 <_nl_load_domain+0xb9a>
   12644:	28078363          	beqz	a5,128ca <_nl_load_domain+0xcbe>
   12648:	67e6                	ld	a5,88(sp)
   1264a:	4388                	lw	a0,0(a5)
   1264c:	5e9330ef          	jal	ra,46434 <__bswapsi2>
   12650:	02051693          	slli	a3,a0,0x20
   12654:	9281                	srli	a3,a3,0x20
   12656:	96a6                	add	a3,a3,s1
   12658:	4688                	lw	a0,8(a3)
   1265a:	ec36                	sd	a3,24(sp)
   1265c:	5d9330ef          	jal	ra,46434 <__bswapsi2>
   12660:	0005071b          	sext.w	a4,a0
   12664:	66e2                	ld	a3,24(sp)
   12666:	0705                	addi	a4,a4,1
   12668:	00e03733          	snez	a4,a4
   1266c:	14071b63          	bnez	a4,127c2 <_nl_load_domain+0xbb6>
   12670:	67a2                	ld	a5,8(sp)
   12672:	4705                	li	a4,1
   12674:	14e79463          	bne	a5,a4,127bc <_nl_load_domain+0xbb0>
   12678:	07016703          	lwu	a4,112(sp)
   1267c:	77e6                	ld	a5,120(sp)
   1267e:	e882                	sd	zero,80(sp)
   12680:	0712                	slli	a4,a4,0x4
   12682:	97ba                	add	a5,a5,a4
   12684:	e53e                	sd	a5,136(sp)
   12686:	67ea                	ld	a5,152(sp)
   12688:	97ba                	add	a5,a5,a4
   1268a:	e13e                	sd	a5,128(sp)
   1268c:	67c6                	ld	a5,80(sp)
   1268e:	07ab0563          	beq	s6,s10,126f8 <_nl_load_domain+0xaec>
   12692:	24078b63          	beqz	a5,128e8 <_nl_load_domain+0xcdc>
   12696:	67e6                	ld	a5,88(sp)
   12698:	4388                	lw	a0,0(a5)
   1269a:	678a                	ld	a5,128(sp)
   1269c:	e93e                	sd	a5,144(sp)
   1269e:	597330ef          	jal	ra,46434 <__bswapsi2>
   126a2:	02051693          	slli	a3,a0,0x20
   126a6:	9281                	srli	a3,a3,0x20
   126a8:	96a6                	add	a3,a3,s1
   126aa:	4288                	lw	a0,0(a3)
   126ac:	ec36                	sd	a3,24(sp)
   126ae:	587330ef          	jal	ra,46434 <__bswapsi2>
   126b2:	66e2                	ld	a3,24(sp)
   126b4:	02051713          	slli	a4,a0,0x20
   126b8:	9301                	srli	a4,a4,0x20
   126ba:	4688                	lw	a0,8(a3)
   126bc:	00e487b3          	add	a5,s1,a4
   126c0:	ec36                	sd	a3,24(sp)
   126c2:	f4be                	sd	a5,104(sp)
   126c4:	571330ef          	jal	ra,46434 <__bswapsi2>
   126c8:	66e2                	ld	a3,24(sp)
   126ca:	0005071b          	sext.w	a4,a0
   126ce:	42c8                	lw	a0,4(a3)
   126d0:	05b71663          	bne	a4,s11,1271c <_nl_load_domain+0xb10>
   126d4:	561330ef          	jal	ra,46434 <__bswapsi2>
   126d8:	02051713          	slli	a4,a0,0x20
   126dc:	9301                	srli	a4,a4,0x20
   126de:	67ca                	ld	a5,144(sp)
   126e0:	e398                	sd	a4,0(a5)
   126e2:	7726                	ld	a4,104(sp)
   126e4:	e798                	sd	a4,8(a5)
   126e6:	67c6                	ld	a5,80(sp)
   126e8:	4705                	li	a4,1
   126ea:	0ee78f63          	beq	a5,a4,127e8 <_nl_load_domain+0xbdc>
   126ee:	67a2                	ld	a5,8(sp)
   126f0:	e8be                	sd	a5,80(sp)
   126f2:	67c6                	ld	a5,80(sp)
   126f4:	f9ab1fe3          	bne	s6,s10,12692 <_nl_load_domain+0xa86>
   126f8:	1e078363          	beqz	a5,128de <_nl_load_domain+0xcd2>
   126fc:	67e6                	ld	a5,88(sp)
   126fe:	0007e683          	lwu	a3,0(a5)
   12702:	678a                	ld	a5,128(sp)
   12704:	96a6                	add	a3,a3,s1
   12706:	0006e703          	lwu	a4,0(a3)
   1270a:	4690                	lw	a2,8(a3)
   1270c:	e93e                	sd	a5,144(sp)
   1270e:	00e487b3          	add	a5,s1,a4
   12712:	f4be                	sd	a5,104(sp)
   12714:	0046e703          	lwu	a4,4(a3)
   12718:	fdb603e3          	beq	a2,s11,126de <_nl_load_domain+0xad2>
   1271c:	67ca                	ld	a5,144(sp)
   1271e:	6742                	ld	a4,16(sp)
   12720:	0691                	addi	a3,a3,4
   12722:	e798                	sd	a4,8(a5)
   12724:	4290                	lw	a2,0(a3)
   12726:	42d8                	lw	a4,4(a3)
   12728:	03ab0263          	beq	s6,s10,1274c <_nl_load_domain+0xb40>
   1272c:	8532                	mv	a0,a2
   1272e:	f436                	sd	a3,40(sp)
   12730:	ec3a                	sd	a4,24(sp)
   12732:	503330ef          	jal	ra,46434 <__bswapsi2>
   12736:	6762                	ld	a4,24(sp)
   12738:	0005061b          	sext.w	a2,a0
   1273c:	ec32                	sd	a2,24(sp)
   1273e:	853a                	mv	a0,a4
   12740:	4f5330ef          	jal	ra,46434 <__bswapsi2>
   12744:	76a2                	ld	a3,40(sp)
   12746:	6662                	ld	a2,24(sp)
   12748:	0005071b          	sext.w	a4,a0
   1274c:	ea0d                	bnez	a2,1277e <_nl_load_domain+0xb72>
   1274e:	19b70163          	beq	a4,s11,128d0 <_nl_load_domain+0xcc4>
   12752:	1702                	slli	a4,a4,0x20
   12754:	8375                	srli	a4,a4,0x1d
   12756:	9762                	add	a4,a4,s8
   12758:	630c                	ld	a1,0(a4)
   1275a:	06a1                	addi	a3,a3,8
   1275c:	f836                	sd	a3,48(sp)
   1275e:	852e                	mv	a0,a1
   12760:	f42e                	sd	a1,40(sp)
   12762:	0320c0ef          	jal	ra,1e794 <strlen>
   12766:	862a                	mv	a2,a0
   12768:	75a2                	ld	a1,40(sp)
   1276a:	6542                	ld	a0,16(sp)
   1276c:	ec32                	sd	a2,24(sp)
   1276e:	4d50c0ef          	jal	ra,1f442 <memcpy>
   12772:	67c2                	ld	a5,16(sp)
   12774:	6662                	ld	a2,24(sp)
   12776:	76c2                	ld	a3,48(sp)
   12778:	97b2                	add	a5,a5,a2
   1277a:	e83e                	sd	a5,16(sp)
   1277c:	b765                	j	12724 <_nl_load_domain+0xb18>
   1277e:	75a6                	ld	a1,104(sp)
   12780:	6542                	ld	a0,16(sp)
   12782:	1602                	slli	a2,a2,0x20
   12784:	9201                	srli	a2,a2,0x20
   12786:	f83a                	sd	a4,48(sp)
   12788:	f436                	sd	a3,40(sp)
   1278a:	ec32                	sd	a2,24(sp)
   1278c:	4b70c0ef          	jal	ra,1f442 <memcpy>
   12790:	67c2                	ld	a5,16(sp)
   12792:	6662                	ld	a2,24(sp)
   12794:	76a2                	ld	a3,40(sp)
   12796:	00c78733          	add	a4,a5,a2
   1279a:	77a6                	ld	a5,104(sp)
   1279c:	e83a                	sd	a4,16(sp)
   1279e:	7742                	ld	a4,48(sp)
   127a0:	97b2                	add	a5,a5,a2
   127a2:	f4be                	sd	a5,104(sp)
   127a4:	b76d                	j	1274e <_nl_load_domain+0xb42>
   127a6:	10078e63          	beqz	a5,128c2 <_nl_load_domain+0xcb6>
   127aa:	67e6                	ld	a5,88(sp)
   127ac:	0007e683          	lwu	a3,0(a5)
   127b0:	96a6                	add	a3,a3,s1
   127b2:	4698                	lw	a4,8(a3)
   127b4:	0705                	addi	a4,a4,1
   127b6:	00e03733          	snez	a4,a4
   127ba:	bd4d                	j	1266c <_nl_load_domain+0xa60>
   127bc:	4785                	li	a5,1
   127be:	e43e                	sd	a5,8(sp)
   127c0:	bdbd                	j	1263e <_nl_load_domain+0xa32>
   127c2:	0691                	addi	a3,a3,4
   127c4:	42c8                	lw	a0,4(a3)
   127c6:	01ab0763          	beq	s6,s10,127d4 <_nl_load_domain+0xbc8>
   127ca:	ec36                	sd	a3,24(sp)
   127cc:	469330ef          	jal	ra,46434 <__bswapsi2>
   127d0:	66e2                	ld	a3,24(sp)
   127d2:	2501                	sext.w	a0,a0
   127d4:	e9b50ee3          	beq	a0,s11,12670 <_nl_load_domain+0xa64>
   127d8:	02051713          	slli	a4,a0,0x20
   127dc:	8375                	srli	a4,a4,0x1d
   127de:	9762                	add	a4,a4,s8
   127e0:	6318                	ld	a4,0(a4)
   127e2:	c711                	beqz	a4,127ee <_nl_load_domain+0xbe2>
   127e4:	06a1                	addi	a3,a3,8
   127e6:	bff9                	j	127c4 <_nl_load_domain+0xbb8>
   127e8:	77c6                	ld	a5,112(sp)
   127ea:	2785                	addiw	a5,a5,1
   127ec:	f8be                	sd	a5,112(sp)
   127ee:	6766                	ld	a4,88(sp)
   127f0:	7786                	ld	a5,96(sp)
   127f2:	0711                	addi	a4,a4,4
   127f4:	ecba                	sd	a4,88(sp)
   127f6:	6726                	ld	a4,72(sp)
   127f8:	0791                	addi	a5,a5,4
   127fa:	f0be                	sd	a5,96(sp)
   127fc:	e4f710e3          	bne	a4,a5,1263c <_nl_load_domain+0xa30>
   12800:	6786                	ld	a5,64(sp)
   12802:	7746                	ld	a4,112(sp)
   12804:	4ae79f63          	bne	a5,a4,12cc2 <_nl_load_domain+0x10b6>
   12808:	7762                	ld	a4,56(sp)
   1280a:	950416b7          	lui	a3,0x95041
   1280e:	8dd2                	mv	s11,s4
   12810:	4d01                	li	s10,0
   12812:	2de68693          	addi	a3,a3,734 # ffffffff950412de <__BSS_END__+0xffffffff94fd4266>
   12816:	4308                	lw	a0,0(a4)
   12818:	00db0b63          	beq	s6,a3,1282e <_nl_load_domain+0xc22>
   1281c:	e43a                	sd	a4,8(sp)
   1281e:	417330ef          	jal	ra,46434 <__bswapsi2>
   12822:	6722                	ld	a4,8(sp)
   12824:	950417b7          	lui	a5,0x95041
   12828:	2501                	sext.w	a0,a0
   1282a:	2de78693          	addi	a3,a5,734 # ffffffff950412de <__BSS_END__+0xffffffff94fd4266>
   1282e:	7782                	ld	a5,32(sp)
   12830:	00ada023          	sw	a0,0(s11)
   12834:	2d05                	addiw	s10,s10,1
   12836:	0711                	addi	a4,a4,4
   12838:	0d91                	addi	s11,s11,4
   1283a:	fcfd6ee3          	bltu	s10,a5,12816 <_nl_load_domain+0xc0a>
   1283e:	77e6                	ld	a5,120(sp)
   12840:	4b01                	li	s6,0
   12842:	00878d13          	addi	s10,a5,8
   12846:	000d3503          	ld	a0,0(s10)
   1284a:	67a010ef          	jal	ra,13ec4 <__hash_string>
   1284e:	058ca603          	lw	a2,88(s9)
   12852:	02c576bb          	remuw	a3,a0,a2
   12856:	ffe6059b          	addiw	a1,a2,-2
   1285a:	02b575bb          	remuw	a1,a0,a1
   1285e:	02069713          	slli	a4,a3,0x20
   12862:	8379                	srli	a4,a4,0x1e
   12864:	9752                	add	a4,a4,s4
   12866:	4308                	lw	a0,0(a4)
   12868:	0015889b          	addiw	a7,a1,1
   1286c:	cd11                	beqz	a0,12888 <_nl_load_domain+0xc7c>
   1286e:	411605bb          	subw	a1,a2,a7
   12872:	40c8853b          	subw	a0,a7,a2
   12876:	04b6e363          	bltu	a3,a1,128bc <_nl_load_domain+0xcb0>
   1287a:	9ea9                	addw	a3,a3,a0
   1287c:	02069713          	slli	a4,a3,0x20
   12880:	8379                	srli	a4,a4,0x1e
   12882:	9752                	add	a4,a4,s4
   12884:	4310                	lw	a2,0(a4)
   12886:	fa65                	bnez	a2,12876 <_nl_load_domain+0xc6a>
   12888:	028ca683          	lw	a3,40(s9)
   1288c:	6786                	ld	a5,64(sp)
   1288e:	0d41                	addi	s10,s10,16
   12890:	2685                	addiw	a3,a3,1
   12892:	016686bb          	addw	a3,a3,s6
   12896:	c314                	sw	a3,0(a4)
   12898:	2b05                	addiw	s6,s6,1
   1289a:	fb6796e3          	bne	a5,s6,12846 <_nl_load_domain+0xc3a>
   1289e:	6786                	ld	a5,64(sp)
   128a0:	074cb023          	sd	s4,96(s9)
   128a4:	060ca423          	sw	zero,104(s9)
   128a8:	04fca023          	sw	a5,64(s9)
   128ac:	77e6                	ld	a5,120(sp)
   128ae:	04fcb423          	sd	a5,72(s9)
   128b2:	67ea                	ld	a5,152(sp)
   128b4:	04fcb823          	sd	a5,80(s9)
   128b8:	e98ff06f          	j	11f50 <_nl_load_domain+0x344>
   128bc:	00d886bb          	addw	a3,a7,a3
   128c0:	bf75                	j	1287c <_nl_load_domain+0xc70>
   128c2:	7786                	ld	a5,96(sp)
   128c4:	0007e683          	lwu	a3,0(a5)
   128c8:	b5e5                	j	127b0 <_nl_load_domain+0xba4>
   128ca:	7786                	ld	a5,96(sp)
   128cc:	4388                	lw	a0,0(a5)
   128ce:	bbbd                	j	1264c <_nl_load_domain+0xa40>
   128d0:	67ca                	ld	a5,144(sp)
   128d2:	66c2                	ld	a3,16(sp)
   128d4:	6798                	ld	a4,8(a5)
   128d6:	40e68733          	sub	a4,a3,a4
   128da:	e398                	sd	a4,0(a5)
   128dc:	b529                	j	126e6 <_nl_load_domain+0xada>
   128de:	7786                	ld	a5,96(sp)
   128e0:	0007e683          	lwu	a3,0(a5)
   128e4:	67aa                	ld	a5,136(sp)
   128e6:	bd39                	j	12704 <_nl_load_domain+0xaf8>
   128e8:	7786                	ld	a5,96(sp)
   128ea:	4388                	lw	a0,0(a5)
   128ec:	67aa                	ld	a5,136(sp)
   128ee:	b37d                	j	1269c <_nl_load_domain+0xa90>
   128f0:	4701                	li	a4,0
   128f2:	d70ff06f          	j	11e62 <_nl_load_domain+0x256>
   128f6:	7766                	ld	a4,120(sp)
   128f8:	d6aff06f          	j	11e62 <_nl_load_domain+0x256>
   128fc:	7746                	ld	a4,112(sp)
   128fe:	d64ff06f          	j	11e62 <_nl_load_domain+0x256>
   12902:	0004b737          	lui	a4,0x4b
   12906:	24870713          	addi	a4,a4,584 # 4b248 <_nl_default_default_domain+0x30>
   1290a:	d58ff06f          	j	11e62 <_nl_load_domain+0x256>
   1290e:	670a                	ld	a4,128(sp)
   12910:	d52ff06f          	j	11e62 <_nl_load_domain+0x256>
   12914:	0004b737          	lui	a4,0x4b
   12918:	27070713          	addi	a4,a4,624 # 4b270 <_nl_default_default_domain+0x58>
   1291c:	d46ff06f          	j	11e62 <_nl_load_domain+0x256>
   12920:	0004b737          	lui	a4,0x4b
   12924:	27070713          	addi	a4,a4,624 # 4b270 <_nl_default_default_domain+0x58>
   12928:	d3aff06f          	j	11e62 <_nl_load_domain+0x256>
   1292c:	670a                	ld	a4,128(sp)
   1292e:	d34ff06f          	j	11e62 <_nl_load_domain+0x256>
   12932:	7766                	ld	a4,120(sp)
   12934:	d2eff06f          	j	11e62 <_nl_load_domain+0x256>
   12938:	7706                	ld	a4,96(sp)
   1293a:	d28ff06f          	j	11e62 <_nl_load_domain+0x256>
   1293e:	7746                	ld	a4,112(sp)
   12940:	d22ff06f          	j	11e62 <_nl_load_domain+0x256>
   12944:	6746                	ld	a4,80(sp)
   12946:	d1cff06f          	j	11e62 <_nl_load_domain+0x256>
   1294a:	6726                	ld	a4,72(sp)
   1294c:	d16ff06f          	j	11e62 <_nl_load_domain+0x256>
   12950:	6706                	ld	a4,64(sp)
   12952:	d10ff06f          	j	11e62 <_nl_load_domain+0x256>
   12956:	7746                	ld	a4,112(sp)
   12958:	d0aff06f          	j	11e62 <_nl_load_domain+0x256>
   1295c:	670a                	ld	a4,128(sp)
   1295e:	d04ff06f          	j	11e62 <_nl_load_domain+0x256>
   12962:	7766                	ld	a4,120(sp)
   12964:	cfeff06f          	j	11e62 <_nl_load_domain+0x256>
   12968:	0004b737          	lui	a4,0x4b
   1296c:	27070713          	addi	a4,a4,624 # 4b270 <_nl_default_default_domain+0x58>
   12970:	cf2ff06f          	j	11e62 <_nl_load_domain+0x256>
   12974:	0004b737          	lui	a4,0x4b
   12978:	24870713          	addi	a4,a4,584 # 4b248 <_nl_default_default_domain+0x30>
   1297c:	ce6ff06f          	j	11e62 <_nl_load_domain+0x256>
   12980:	6766                	ld	a4,88(sp)
   12982:	ce0ff06f          	j	11e62 <_nl_load_domain+0x256>
   12986:	6746                	ld	a4,80(sp)
   12988:	cdaff06f          	j	11e62 <_nl_load_domain+0x256>
   1298c:	6726                	ld	a4,72(sp)
   1298e:	cd4ff06f          	j	11e62 <_nl_load_domain+0x256>
   12992:	0004b737          	lui	a4,0x4b
   12996:	27070713          	addi	a4,a4,624 # 4b270 <_nl_default_default_domain+0x58>
   1299a:	cc8ff06f          	j	11e62 <_nl_load_domain+0x256>
   1299e:	6706                	ld	a4,64(sp)
   129a0:	cc2ff06f          	j	11e62 <_nl_load_domain+0x256>
   129a4:	7706                	ld	a4,96(sp)
   129a6:	cbcff06f          	j	11e62 <_nl_load_domain+0x256>
   129aa:	0004b737          	lui	a4,0x4b
   129ae:	24870713          	addi	a4,a4,584 # 4b248 <_nl_default_default_domain+0x30>
   129b2:	cb0ff06f          	j	11e62 <_nl_load_domain+0x256>
   129b6:	6766                	ld	a4,88(sp)
   129b8:	caaff06f          	j	11e62 <_nl_load_domain+0x256>
   129bc:	6746                	ld	a4,80(sp)
   129be:	ca4ff06f          	j	11e62 <_nl_load_domain+0x256>
   129c2:	6726                	ld	a4,72(sp)
   129c4:	c9eff06f          	j	11e62 <_nl_load_domain+0x256>
   129c8:	6706                	ld	a4,64(sp)
   129ca:	c98ff06f          	j	11e62 <_nl_load_domain+0x256>
   129ce:	4701                	li	a4,0
   129d0:	c92ff06f          	j	11e62 <_nl_load_domain+0x256>
   129d4:	c9c51763          	bne	a0,t3,11e62 <_nl_load_domain+0x256>
   129d8:	0096ce03          	lbu	t3,9(a3)
   129dc:	03400513          	li	a0,52
   129e0:	4701                	li	a4,0
   129e2:	c8ae1063          	bne	t3,a0,11e62 <_nl_load_domain+0x256>
   129e6:	00a6c683          	lbu	a3,10(a3)
   129ea:	c6069c63          	bnez	a3,11e62 <_nl_load_domain+0x256>
   129ee:	06400713          	li	a4,100
   129f2:	12ee8063          	beq	t4,a4,12b12 <_nl_load_domain+0xf06>
   129f6:	06900713          	li	a4,105
   129fa:	10ee8963          	beq	t4,a4,12b0c <_nl_load_domain+0xf00>
   129fe:	06f00713          	li	a4,111
   12a02:	10ee8263          	beq	t4,a4,12b06 <_nl_load_domain+0xefa>
   12a06:	07500713          	li	a4,117
   12a0a:	0eee8b63          	beq	t4,a4,12b00 <_nl_load_domain+0xef4>
   12a0e:	07800713          	li	a4,120
   12a12:	08ee8d63          	beq	t4,a4,12aac <_nl_load_domain+0xea0>
   12a16:	05800713          	li	a4,88
   12a1a:	2aee9463          	bne	t4,a4,12cc2 <_nl_load_domain+0x10b6>
   12a1e:	7726                	ld	a4,104(sp)
   12a20:	c42ff06f          	j	11e62 <_nl_load_domain+0x256>
   12a24:	0096c503          	lbu	a0,9(a3)
   12a28:	c3c51d63          	bne	a0,t3,11e62 <_nl_load_domain+0x256>
   12a2c:	00a6c703          	lbu	a4,10(a3)
   12a30:	e769                	bnez	a4,12afa <_nl_load_domain+0xeee>
   12a32:	06400713          	li	a4,100
   12a36:	0aee8f63          	beq	t4,a4,12af4 <_nl_load_domain+0xee8>
   12a3a:	06900713          	li	a4,105
   12a3e:	0aee8863          	beq	t4,a4,12aee <_nl_load_domain+0xee2>
   12a42:	06f00713          	li	a4,111
   12a46:	0aee8163          	beq	t4,a4,12ae8 <_nl_load_domain+0xedc>
   12a4a:	07500713          	li	a4,117
   12a4e:	06ee8563          	beq	t4,a4,12ab8 <_nl_load_domain+0xeac>
   12a52:	07800713          	li	a4,120
   12a56:	04ee8e63          	beq	t4,a4,12ab2 <_nl_load_domain+0xea6>
   12a5a:	05800713          	li	a4,88
   12a5e:	26ee9263          	bne	t4,a4,12cc2 <_nl_load_domain+0x10b6>
   12a62:	7726                	ld	a4,104(sp)
   12a64:	bfeff06f          	j	11e62 <_nl_load_domain+0x256>
   12a68:	0096c683          	lbu	a3,9(a3)
   12a6c:	be069b63          	bnez	a3,11e62 <_nl_load_domain+0x256>
   12a70:	06400713          	li	a4,100
   12a74:	06ee8763          	beq	t4,a4,12ae2 <_nl_load_domain+0xed6>
   12a78:	06900713          	li	a4,105
   12a7c:	06ee8063          	beq	t4,a4,12adc <_nl_load_domain+0xed0>
   12a80:	06f00713          	li	a4,111
   12a84:	04ee8963          	beq	t4,a4,12ad6 <_nl_load_domain+0xeca>
   12a88:	07500713          	li	a4,117
   12a8c:	02ee8f63          	beq	t4,a4,12aca <_nl_load_domain+0xebe>
   12a90:	07800713          	li	a4,120
   12a94:	02ee8563          	beq	t4,a4,12abe <_nl_load_domain+0xeb2>
   12a98:	05800713          	li	a4,88
   12a9c:	22ee9363          	bne	t4,a4,12cc2 <_nl_load_domain+0x10b6>
   12aa0:	0005b737          	lui	a4,0x5b
   12aa4:	16070713          	addi	a4,a4,352 # 5b160 <__strtol_ul_max_tab+0x1e8>
   12aa8:	bbaff06f          	j	11e62 <_nl_load_domain+0x256>
   12aac:	7706                	ld	a4,96(sp)
   12aae:	bb4ff06f          	j	11e62 <_nl_load_domain+0x256>
   12ab2:	7706                	ld	a4,96(sp)
   12ab4:	baeff06f          	j	11e62 <_nl_load_domain+0x256>
   12ab8:	6766                	ld	a4,88(sp)
   12aba:	ba8ff06f          	j	11e62 <_nl_load_domain+0x256>
   12abe:	0004b737          	lui	a4,0x4b
   12ac2:	27070713          	addi	a4,a4,624 # 4b270 <_nl_default_default_domain+0x58>
   12ac6:	b9cff06f          	j	11e62 <_nl_load_domain+0x256>
   12aca:	0004b737          	lui	a4,0x4b
   12ace:	24870713          	addi	a4,a4,584 # 4b248 <_nl_default_default_domain+0x30>
   12ad2:	b90ff06f          	j	11e62 <_nl_load_domain+0x256>
   12ad6:	670a                	ld	a4,128(sp)
   12ad8:	b8aff06f          	j	11e62 <_nl_load_domain+0x256>
   12adc:	7766                	ld	a4,120(sp)
   12ade:	b84ff06f          	j	11e62 <_nl_load_domain+0x256>
   12ae2:	7746                	ld	a4,112(sp)
   12ae4:	b7eff06f          	j	11e62 <_nl_load_domain+0x256>
   12ae8:	6746                	ld	a4,80(sp)
   12aea:	b78ff06f          	j	11e62 <_nl_load_domain+0x256>
   12aee:	6726                	ld	a4,72(sp)
   12af0:	b72ff06f          	j	11e62 <_nl_load_domain+0x256>
   12af4:	6706                	ld	a4,64(sp)
   12af6:	b6cff06f          	j	11e62 <_nl_load_domain+0x256>
   12afa:	4701                	li	a4,0
   12afc:	b66ff06f          	j	11e62 <_nl_load_domain+0x256>
   12b00:	6766                	ld	a4,88(sp)
   12b02:	b60ff06f          	j	11e62 <_nl_load_domain+0x256>
   12b06:	6746                	ld	a4,80(sp)
   12b08:	b5aff06f          	j	11e62 <_nl_load_domain+0x256>
   12b0c:	6726                	ld	a4,72(sp)
   12b0e:	b54ff06f          	j	11e62 <_nl_load_domain+0x256>
   12b12:	6706                	ld	a4,64(sp)
   12b14:	b4eff06f          	j	11e62 <_nl_load_domain+0x256>
   12b18:	7706                	ld	a4,96(sp)
   12b1a:	b48ff06f          	j	11e62 <_nl_load_domain+0x256>
   12b1e:	6766                	ld	a4,88(sp)
   12b20:	b42ff06f          	j	11e62 <_nl_load_domain+0x256>
   12b24:	7706                	ld	a4,96(sp)
   12b26:	b3cff06f          	j	11e62 <_nl_load_domain+0x256>
   12b2a:	6766                	ld	a4,88(sp)
   12b2c:	b36ff06f          	j	11e62 <_nl_load_domain+0x256>
   12b30:	6746                	ld	a4,80(sp)
   12b32:	b30ff06f          	j	11e62 <_nl_load_domain+0x256>
   12b36:	6726                	ld	a4,72(sp)
   12b38:	b2aff06f          	j	11e62 <_nl_load_domain+0x256>
   12b3c:	6706                	ld	a4,64(sp)
   12b3e:	b24ff06f          	j	11e62 <_nl_load_domain+0x256>
   12b42:	4701                	li	a4,0
   12b44:	b1eff06f          	j	11e62 <_nl_load_domain+0x256>
   12b48:	0004b737          	lui	a4,0x4b
   12b4c:	24870713          	addi	a4,a4,584 # 4b248 <_nl_default_default_domain+0x30>
   12b50:	b12ff06f          	j	11e62 <_nl_load_domain+0x256>
   12b54:	670a                	ld	a4,128(sp)
   12b56:	b0cff06f          	j	11e62 <_nl_load_domain+0x256>
   12b5a:	7766                	ld	a4,120(sp)
   12b5c:	b06ff06f          	j	11e62 <_nl_load_domain+0x256>
   12b60:	7746                	ld	a4,112(sp)
   12b62:	b00ff06f          	j	11e62 <_nl_load_domain+0x256>
   12b66:	4701                	li	a4,0
   12b68:	afaff06f          	j	11e62 <_nl_load_domain+0x256>
   12b6c:	afc51b63          	bne	a0,t3,11e62 <_nl_load_domain+0x256>
   12b70:	00a6ce03          	lbu	t3,10(a3)
   12b74:	03400513          	li	a0,52
   12b78:	4701                	li	a4,0
   12b7a:	aeae1463          	bne	t3,a0,11e62 <_nl_load_domain+0x256>
   12b7e:	00b6c683          	lbu	a3,11(a3)
   12b82:	ae069063          	bnez	a3,11e62 <_nl_load_domain+0x256>
   12b86:	06400713          	li	a4,100
   12b8a:	12ee8963          	beq	t4,a4,12cbc <_nl_load_domain+0x10b0>
   12b8e:	06900713          	li	a4,105
   12b92:	12ee8263          	beq	t4,a4,12cb6 <_nl_load_domain+0x10aa>
   12b96:	06f00713          	li	a4,111
   12b9a:	10ee8b63          	beq	t4,a4,12cb0 <_nl_load_domain+0x10a4>
   12b9e:	07500713          	li	a4,117
   12ba2:	10ee8463          	beq	t4,a4,12caa <_nl_load_domain+0x109e>
   12ba6:	07800713          	li	a4,120
   12baa:	0aee8063          	beq	t4,a4,12c4a <_nl_load_domain+0x103e>
   12bae:	05800713          	li	a4,88
   12bb2:	10ee9863          	bne	t4,a4,12cc2 <_nl_load_domain+0x10b6>
   12bb6:	7726                	ld	a4,104(sp)
   12bb8:	aaaff06f          	j	11e62 <_nl_load_domain+0x256>
   12bbc:	00a6c503          	lbu	a0,10(a3)
   12bc0:	abc51163          	bne	a0,t3,11e62 <_nl_load_domain+0x256>
   12bc4:	00b6c703          	lbu	a4,11(a3)
   12bc8:	ef71                	bnez	a4,12ca4 <_nl_load_domain+0x1098>
   12bca:	06400713          	li	a4,100
   12bce:	0cee8863          	beq	t4,a4,12c9e <_nl_load_domain+0x1092>
   12bd2:	06900713          	li	a4,105
   12bd6:	0cee8163          	beq	t4,a4,12c98 <_nl_load_domain+0x108c>
   12bda:	06f00713          	li	a4,111
   12bde:	0aee8a63          	beq	t4,a4,12c92 <_nl_load_domain+0x1086>
   12be2:	07500713          	li	a4,117
   12be6:	06ee8b63          	beq	t4,a4,12c5c <_nl_load_domain+0x1050>
   12bea:	07800713          	li	a4,120
   12bee:	06ee8163          	beq	t4,a4,12c50 <_nl_load_domain+0x1044>
   12bf2:	05800713          	li	a4,88
   12bf6:	0cee9663          	bne	t4,a4,12cc2 <_nl_load_domain+0x10b6>
   12bfa:	0005b737          	lui	a4,0x5b
   12bfe:	16070713          	addi	a4,a4,352 # 5b160 <__strtol_ul_max_tab+0x1e8>
   12c02:	a60ff06f          	j	11e62 <_nl_load_domain+0x256>
   12c06:	00a6c683          	lbu	a3,10(a3)
   12c0a:	a4069c63          	bnez	a3,11e62 <_nl_load_domain+0x256>
   12c0e:	06400713          	li	a4,100
   12c12:	06ee8d63          	beq	t4,a4,12c8c <_nl_load_domain+0x1080>
   12c16:	06900713          	li	a4,105
   12c1a:	06ee8663          	beq	t4,a4,12c86 <_nl_load_domain+0x107a>
   12c1e:	06f00713          	li	a4,111
   12c22:	04ee8f63          	beq	t4,a4,12c80 <_nl_load_domain+0x1074>
   12c26:	07500713          	li	a4,117
   12c2a:	04ee8563          	beq	t4,a4,12c74 <_nl_load_domain+0x1068>
   12c2e:	07800713          	li	a4,120
   12c32:	02ee8b63          	beq	t4,a4,12c68 <_nl_load_domain+0x105c>
   12c36:	05800713          	li	a4,88
   12c3a:	08ee9463          	bne	t4,a4,12cc2 <_nl_load_domain+0x10b6>
   12c3e:	0005b737          	lui	a4,0x5b
   12c42:	16070713          	addi	a4,a4,352 # 5b160 <__strtol_ul_max_tab+0x1e8>
   12c46:	a1cff06f          	j	11e62 <_nl_load_domain+0x256>
   12c4a:	7706                	ld	a4,96(sp)
   12c4c:	a16ff06f          	j	11e62 <_nl_load_domain+0x256>
   12c50:	0004b737          	lui	a4,0x4b
   12c54:	27070713          	addi	a4,a4,624 # 4b270 <_nl_default_default_domain+0x58>
   12c58:	a0aff06f          	j	11e62 <_nl_load_domain+0x256>
   12c5c:	0004b737          	lui	a4,0x4b
   12c60:	24870713          	addi	a4,a4,584 # 4b248 <_nl_default_default_domain+0x30>
   12c64:	9feff06f          	j	11e62 <_nl_load_domain+0x256>
   12c68:	0004b737          	lui	a4,0x4b
   12c6c:	27070713          	addi	a4,a4,624 # 4b270 <_nl_default_default_domain+0x58>
   12c70:	9f2ff06f          	j	11e62 <_nl_load_domain+0x256>
   12c74:	0004b737          	lui	a4,0x4b
   12c78:	24870713          	addi	a4,a4,584 # 4b248 <_nl_default_default_domain+0x30>
   12c7c:	9e6ff06f          	j	11e62 <_nl_load_domain+0x256>
   12c80:	670a                	ld	a4,128(sp)
   12c82:	9e0ff06f          	j	11e62 <_nl_load_domain+0x256>
   12c86:	7766                	ld	a4,120(sp)
   12c88:	9daff06f          	j	11e62 <_nl_load_domain+0x256>
   12c8c:	7746                	ld	a4,112(sp)
   12c8e:	9d4ff06f          	j	11e62 <_nl_load_domain+0x256>
   12c92:	670a                	ld	a4,128(sp)
   12c94:	9ceff06f          	j	11e62 <_nl_load_domain+0x256>
   12c98:	7766                	ld	a4,120(sp)
   12c9a:	9c8ff06f          	j	11e62 <_nl_load_domain+0x256>
   12c9e:	7746                	ld	a4,112(sp)
   12ca0:	9c2ff06f          	j	11e62 <_nl_load_domain+0x256>
   12ca4:	4701                	li	a4,0
   12ca6:	9bcff06f          	j	11e62 <_nl_load_domain+0x256>
   12caa:	6766                	ld	a4,88(sp)
   12cac:	9b6ff06f          	j	11e62 <_nl_load_domain+0x256>
   12cb0:	6746                	ld	a4,80(sp)
   12cb2:	9b0ff06f          	j	11e62 <_nl_load_domain+0x256>
   12cb6:	6726                	ld	a4,72(sp)
   12cb8:	9aaff06f          	j	11e62 <_nl_load_domain+0x256>
   12cbc:	6706                	ld	a4,64(sp)
   12cbe:	9a4ff06f          	j	11e62 <_nl_load_domain+0x256>
   12cc2:	ceefd0ef          	jal	ra,101b0 <abort>

0000000000012cc6 <alias_compare>:
   12cc6:	618c                	ld	a1,0(a1)
   12cc8:	6108                	ld	a0,0(a0)
   12cca:	0005b637          	lui	a2,0x5b
   12cce:	e6860613          	addi	a2,a2,-408 # 5ae68 <_nl_C_locobj>
   12cd2:	73e0c06f          	j	1f410 <__strcasecmp_l>

0000000000012cd6 <read_alias_file>:
   12cd6:	dc010113          	addi	sp,sp,-576
   12cda:	01d58793          	addi	a5,a1,29
   12cde:	22113c23          	sd	ra,568(sp)
   12ce2:	22813823          	sd	s0,560(sp)
   12ce6:	22913423          	sd	s1,552(sp)
   12cea:	0480                	addi	s0,sp,576
   12cec:	23213023          	sd	s2,544(sp)
   12cf0:	21313c23          	sd	s3,536(sp)
   12cf4:	21413823          	sd	s4,528(sp)
   12cf8:	21513423          	sd	s5,520(sp)
   12cfc:	21613023          	sd	s6,512(sp)
   12d00:	ffde                	sd	s7,504(sp)
   12d02:	fbe2                	sd	s8,496(sp)
   12d04:	f7e6                	sd	s9,488(sp)
   12d06:	f3ea                	sd	s10,480(sp)
   12d08:	efee                	sd	s11,472(sp)
   12d0a:	9bc1                	andi	a5,a5,-16
   12d0c:	40f10133          	sub	sp,sp,a5
   12d10:	848a                	mv	s1,sp
   12d12:	862e                	mv	a2,a1
   12d14:	85aa                	mv	a1,a0
   12d16:	8526                	mv	a0,s1
   12d18:	6b20c0ef          	jal	ra,1f3ca <__mempcpy>
   12d1c:	0004b5b7          	lui	a1,0x4b
   12d20:	28858593          	addi	a1,a1,648 # 4b288 <_nl_default_default_domain+0x70>
   12d24:	4639                	li	a2,14
   12d26:	71c0c0ef          	jal	ra,1f442 <memcpy>
   12d2a:	0004b5b7          	lui	a1,0x4b
   12d2e:	28058593          	addi	a1,a1,640 # 4b280 <_nl_default_default_domain+0x68>
   12d32:	8526                	mv	a0,s1
   12d34:	722020ef          	jal	ra,15456 <_IO_new_fopen>
   12d38:	2c050463          	beqz	a0,13000 <read_alias_file+0x32a>
   12d3c:	4118                	lw	a4,0(a0)
   12d3e:	77e1                	lui	a5,0xffff8
   12d40:	17fd                	addi	a5,a5,-1
   12d42:	8ff9                	and	a5,a5,a4
   12d44:	66a1                	lui	a3,0x8
   12d46:	8fd5                	or	a5,a5,a3
   12d48:	c11c                	sw	a5,0(a0)
   12d4a:	8b41                	andi	a4,a4,16
   12d4c:	892a                	mv	s2,a0
   12d4e:	4b01                	li	s6,0
   12d50:	2e071363          	bnez	a4,13036 <read_alias_file+0x360>
   12d54:	6d09                	lui	s10,0x2
   12d56:	02300a13          	li	s4,35
   12d5a:	864a                	mv	a2,s2
   12d5c:	19000593          	li	a1,400
   12d60:	e0040513          	addi	a0,s0,-512
   12d64:	363030ef          	jal	ra,168c6 <__fgets_unlocked>
   12d68:	c929                	beqz	a0,12dba <read_alias_file+0xe4>
   12d6a:	45a9                	li	a1,10
   12d6c:	e0040513          	addi	a0,s0,-512
   12d70:	7c20b0ef          	jal	ra,1e532 <strchr>
   12d74:	e0044603          	lbu	a2,-512(s0)
   12d78:	05023583          	ld	a1,80(tp) # 50 <__libc_tsd_CTYPE_B>
   12d7c:	8daa                	mv	s11,a0
   12d7e:	00161713          	slli	a4,a2,0x1
   12d82:	972e                	add	a4,a4,a1
   12d84:	00075703          	lhu	a4,0(a4)
   12d88:	e0040493          	addi	s1,s0,-512
   12d8c:	01a77733          	and	a4,a4,s10
   12d90:	cf01                	beqz	a4,12da8 <read_alias_file+0xd2>
   12d92:	0014c603          	lbu	a2,1(s1)
   12d96:	0485                	addi	s1,s1,1
   12d98:	00161713          	slli	a4,a2,0x1
   12d9c:	972e                	add	a4,a4,a1
   12d9e:	00075703          	lhu	a4,0(a4)
   12da2:	01a77733          	and	a4,a4,s10
   12da6:	f775                	bnez	a4,12d92 <read_alias_file+0xbc>
   12da8:	c219                	beqz	a2,12dae <read_alias_file+0xd8>
   12daa:	09461463          	bne	a2,s4,12e32 <read_alias_file+0x15c>
   12dae:	060d8563          	beqz	s11,12e18 <read_alias_file+0x142>
   12db2:	00092703          	lw	a4,0(s2)
   12db6:	8b41                	andi	a4,a4,16
   12db8:	d34d                	beqz	a4,12d5a <read_alias_file+0x84>
   12dba:	854a                	mv	a0,s2
   12dbc:	2b2020ef          	jal	ra,1506e <_IO_new_fclose>
   12dc0:	000b0e63          	beqz	s6,12ddc <read_alias_file+0x106>
   12dc4:	a081b583          	ld	a1,-1528(gp) # 6bb18 <nmap>
   12dc8:	0006d7b7          	lui	a5,0x6d
   12dcc:	0507b503          	ld	a0,80(a5) # 6d050 <map>
   12dd0:	66cd                	lui	a3,0x13
   12dd2:	cc668693          	addi	a3,a3,-826 # 12cc6 <alias_compare>
   12dd6:	4641                	li	a2,16
   12dd8:	6ee010ef          	jal	ra,144c6 <qsort>
   12ddc:	dc040113          	addi	sp,s0,-576
   12de0:	23813083          	ld	ra,568(sp)
   12de4:	855a                	mv	a0,s6
   12de6:	23013403          	ld	s0,560(sp)
   12dea:	22813483          	ld	s1,552(sp)
   12dee:	22013903          	ld	s2,544(sp)
   12df2:	21813983          	ld	s3,536(sp)
   12df6:	21013a03          	ld	s4,528(sp)
   12dfa:	20813a83          	ld	s5,520(sp)
   12dfe:	20013b03          	ld	s6,512(sp)
   12e02:	7bfe                	ld	s7,504(sp)
   12e04:	7c5e                	ld	s8,496(sp)
   12e06:	7cbe                	ld	s9,488(sp)
   12e08:	7d1e                	ld	s10,480(sp)
   12e0a:	6dfe                	ld	s11,472(sp)
   12e0c:	24010113          	addi	sp,sp,576
   12e10:	8082                	ret
   12e12:	7200b0ef          	jal	ra,1e532 <strchr>
   12e16:	fd51                	bnez	a0,12db2 <read_alias_file+0xdc>
   12e18:	19000593          	li	a1,400
   12e1c:	864a                	mv	a2,s2
   12e1e:	e0040513          	addi	a0,s0,-512
   12e22:	2a5030ef          	jal	ra,168c6 <__fgets_unlocked>
   12e26:	872a                	mv	a4,a0
   12e28:	45a9                	li	a1,10
   12e2a:	e0040513          	addi	a0,s0,-512
   12e2e:	f375                	bnez	a4,12e12 <read_alias_file+0x13c>
   12e30:	b749                	j	12db2 <read_alias_file+0xdc>
   12e32:	0014c603          	lbu	a2,1(s1)
   12e36:	00148c93          	addi	s9,s1,1
   12e3a:	e219                	bnez	a2,12e40 <read_alias_file+0x16a>
   12e3c:	a815                	j	12e70 <read_alias_file+0x19a>
   12e3e:	ca0d                	beqz	a2,12e70 <read_alias_file+0x19a>
   12e40:	0606                	slli	a2,a2,0x1
   12e42:	962e                	add	a2,a2,a1
   12e44:	00065503          	lhu	a0,0(a2)
   12e48:	8866                	mv	a6,s9
   12e4a:	001cc603          	lbu	a2,1(s9)
   12e4e:	01a57533          	and	a0,a0,s10
   12e52:	0c85                	addi	s9,s9,1
   12e54:	d56d                	beqz	a0,12e3e <read_alias_file+0x168>
   12e56:	00161513          	slli	a0,a2,0x1
   12e5a:	00080023          	sb	zero,0(a6)
   12e5e:	952e                	add	a0,a0,a1
   12e60:	00055503          	lhu	a0,0(a0)
   12e64:	01a57533          	and	a0,a0,s10
   12e68:	cd01                	beqz	a0,12e80 <read_alias_file+0x1aa>
   12e6a:	001cc603          	lbu	a2,1(s9)
   12e6e:	0c85                	addi	s9,s9,1
   12e70:	00161513          	slli	a0,a2,0x1
   12e74:	952e                	add	a0,a0,a1
   12e76:	00055503          	lhu	a0,0(a0)
   12e7a:	01a57533          	and	a0,a0,s10
   12e7e:	f575                	bnez	a0,12e6a <read_alias_file+0x194>
   12e80:	d61d                	beqz	a2,12dae <read_alias_file+0xd8>
   12e82:	001cc503          	lbu	a0,1(s9)
   12e86:	001c8813          	addi	a6,s9,1
   12e8a:	e511                	bnez	a0,12e96 <read_alias_file+0x1c0>
   12e8c:	a025                	j	12eb4 <read_alias_file+0x1de>
   12e8e:	00184503          	lbu	a0,1(a6)
   12e92:	0805                	addi	a6,a6,1
   12e94:	c105                	beqz	a0,12eb4 <read_alias_file+0x1de>
   12e96:	00151613          	slli	a2,a0,0x1
   12e9a:	962e                	add	a2,a2,a1
   12e9c:	00065603          	lhu	a2,0(a2)
   12ea0:	01a67633          	and	a2,a2,s10
   12ea4:	d66d                	beqz	a2,12e8e <read_alias_file+0x1b8>
   12ea6:	4629                	li	a2,10
   12ea8:	14c51163          	bne	a0,a2,12fea <read_alias_file+0x314>
   12eac:	00080023          	sb	zero,0(a6)
   12eb0:	00a800a3          	sb	a0,1(a6)
   12eb4:	a001b603          	ld	a2,-1536(gp) # 6bb10 <maxmap>
   12eb8:	a081ba83          	ld	s5,-1528(gp) # 6bb18 <nmap>
   12ebc:	0006d7b7          	lui	a5,0x6d
   12ec0:	05078b93          	addi	s7,a5,80 # 6d050 <map>
   12ec4:	0ecafb63          	bgeu	s5,a2,12fba <read_alias_file+0x2e4>
   12ec8:	8526                	mv	a0,s1
   12eca:	0cb0b0ef          	jal	ra,1e794 <strlen>
   12ece:	862a                	mv	a2,a0
   12ed0:	0605                	addi	a2,a2,1
   12ed2:	8566                	mv	a0,s9
   12ed4:	dec43c23          	sd	a2,-520(s0)
   12ed8:	0bd0b0ef          	jal	ra,1e794 <strlen>
   12edc:	a181bf83          	ld	t6,-1512(gp) # 6bb28 <string_space_act>
   12ee0:	df843603          	ld	a2,-520(s0)
   12ee4:	a101b583          	ld	a1,-1520(gp) # 6bb20 <string_space_max>
   12ee8:	00150893          	addi	a7,a0,1
   12eec:	00cf8f33          	add	t5,t6,a2
   12ef0:	011f0eb3          	add	t4,t5,a7
   12ef4:	008bbe03          	ld	t3,8(s7)
   12ef8:	05d5ed63          	bltu	a1,t4,12f52 <read_alias_file+0x27c>
   12efc:	000bb383          	ld	t2,0(s7)
   12f00:	8872                	mv	a6,t3
   12f02:	004a9293          	slli	t0,s5,0x4
   12f06:	85a6                	mv	a1,s1
   12f08:	01f80533          	add	a0,a6,t6
   12f0c:	005384b3          	add	s1,t2,t0
   12f10:	dfd43423          	sd	t4,-536(s0)
   12f14:	df143023          	sd	a7,-544(s0)
   12f18:	dfe43823          	sd	t5,-528(s0)
   12f1c:	df043c23          	sd	a6,-520(s0)
   12f20:	5220c0ef          	jal	ra,1f442 <memcpy>
   12f24:	de043883          	ld	a7,-544(s0)
   12f28:	df843803          	ld	a6,-520(s0)
   12f2c:	df043f03          	ld	t5,-528(s0)
   12f30:	e088                	sd	a0,0(s1)
   12f32:	8646                	mv	a2,a7
   12f34:	85e6                	mv	a1,s9
   12f36:	01e80533          	add	a0,a6,t5
   12f3a:	5080c0ef          	jal	ra,1f442 <memcpy>
   12f3e:	de843e83          	ld	t4,-536(s0)
   12f42:	0a85                	addi	s5,s5,1
   12f44:	e488                	sd	a0,8(s1)
   12f46:	a1d1bc23          	sd	t4,-1512(gp) # 6bb28 <string_space_act>
   12f4a:	a151b423          	sd	s5,-1528(gp) # 6bb18 <nmap>
   12f4e:	0b05                	addi	s6,s6,1
   12f50:	bdb9                	j	12dae <read_alias_file+0xd8>
   12f52:	01160533          	add	a0,a2,a7
   12f56:	40000813          	li	a6,1024
   12f5a:	09056b63          	bltu	a0,a6,12ff0 <read_alias_file+0x31a>
   12f5e:	95aa                	add	a1,a1,a0
   12f60:	8572                	mv	a0,t3
   12f62:	dd143423          	sd	a7,-568(s0)
   12f66:	dcc43823          	sd	a2,-560(s0)
   12f6a:	ddd43c23          	sd	t4,-552(s0)
   12f6e:	dfe43023          	sd	t5,-544(s0)
   12f72:	dff43423          	sd	t6,-536(s0)
   12f76:	deb43823          	sd	a1,-528(s0)
   12f7a:	dfc43c23          	sd	t3,-520(s0)
   12f7e:	18b0a0ef          	jal	ra,1d908 <__libc_realloc>
   12f82:	882a                	mv	a6,a0
   12f84:	e2050be3          	beqz	a0,12dba <read_alias_file+0xe4>
   12f88:	df843e03          	ld	t3,-520(s0)
   12f8c:	000bb383          	ld	t2,0(s7)
   12f90:	df043583          	ld	a1,-528(s0)
   12f94:	de843f83          	ld	t6,-536(s0)
   12f98:	de043f03          	ld	t5,-544(s0)
   12f9c:	dd843e83          	ld	t4,-552(s0)
   12fa0:	dd043603          	ld	a2,-560(s0)
   12fa4:	dc843883          	ld	a7,-568(s0)
   12fa8:	05c51e63          	bne	a0,t3,13004 <read_alias_file+0x32e>
   12fac:	004a9293          	slli	t0,s5,0x4
   12fb0:	010bb423          	sd	a6,8(s7)
   12fb4:	a0b1b823          	sd	a1,-1520(gp) # 6bb20 <string_space_max>
   12fb8:	b7b9                	j	12f06 <read_alias_file+0x230>
   12fba:	ee15                	bnez	a2,12ff6 <read_alias_file+0x320>
   12fbc:	64000593          	li	a1,1600
   12fc0:	06400813          	li	a6,100
   12fc4:	0006d7b7          	lui	a5,0x6d
   12fc8:	05078b93          	addi	s7,a5,80 # 6d050 <map>
   12fcc:	000bb503          	ld	a0,0(s7)
   12fd0:	df043c23          	sd	a6,-520(s0)
   12fd4:	1350a0ef          	jal	ra,1d908 <__libc_realloc>
   12fd8:	de0501e3          	beqz	a0,12dba <read_alias_file+0xe4>
   12fdc:	df843803          	ld	a6,-520(s0)
   12fe0:	00abb023          	sd	a0,0(s7)
   12fe4:	a101b023          	sd	a6,-1536(gp) # 6bb10 <maxmap>
   12fe8:	b5c5                	j	12ec8 <read_alias_file+0x1f2>
   12fea:	00080023          	sb	zero,0(a6)
   12fee:	b5d9                	j	12eb4 <read_alias_file+0x1de>
   12ff0:	40000513          	li	a0,1024
   12ff4:	b7ad                	j	12f5e <read_alias_file+0x288>
   12ff6:	00161813          	slli	a6,a2,0x1
   12ffa:	00561593          	slli	a1,a2,0x5
   12ffe:	b7d9                	j	12fc4 <read_alias_file+0x2ee>
   13000:	4b01                	li	s6,0
   13002:	bbe9                	j	12ddc <read_alias_file+0x106>
   13004:	4281                	li	t0,0
   13006:	fa0a85e3          	beqz	s5,12fb0 <read_alias_file+0x2da>
   1300a:	004a9293          	slli	t0,s5,0x4
   1300e:	41c50e33          	sub	t3,a0,t3
   13012:	005387b3          	add	a5,t2,t0
   13016:	851e                	mv	a0,t2
   13018:	00053083          	ld	ra,0(a0)
   1301c:	6514                	ld	a3,8(a0)
   1301e:	0541                	addi	a0,a0,16
   13020:	01c08733          	add	a4,ra,t3
   13024:	01c680b3          	add	ra,a3,t3
   13028:	fee53823          	sd	a4,-16(a0)
   1302c:	fe153c23          	sd	ra,-8(a0)
   13030:	fea794e3          	bne	a5,a0,13018 <read_alias_file+0x342>
   13034:	bfb5                	j	12fb0 <read_alias_file+0x2da>
   13036:	038020ef          	jal	ra,1506e <_IO_new_fclose>
   1303a:	b34d                	j	12ddc <read_alias_file+0x106>

000000000001303c <_nl_expand_alias>:
   1303c:	7159                	addi	sp,sp,-112
   1303e:	fc56                	sd	s5,56(sp)
   13040:	eca6                	sd	s1,88(sp)
   13042:	f486                	sd	ra,104(sp)
   13044:	f0a2                	sd	s0,96(sp)
   13046:	e8ca                	sd	s2,80(sp)
   13048:	e4ce                	sd	s3,72(sp)
   1304a:	e0d2                	sd	s4,64(sp)
   1304c:	f85a                	sd	s6,48(sp)
   1304e:	f45e                	sd	s7,40(sp)
   13050:	f062                	sd	s8,32(sp)
   13052:	ec66                	sd	s9,24(sp)
   13054:	e86a                	sd	s10,16(sp)
   13056:	e46e                	sd	s11,8(sp)
   13058:	84aa                	mv	s1,a0
   1305a:	4705                	li	a4,1
   1305c:	a2018693          	addi	a3,gp,-1504 # 6bb30 <lock>
   13060:	1006a7af          	lr.w	a5,(a3)
   13064:	e781                	bnez	a5,1306c <_nl_expand_alias+0x30>
   13066:	1ce6a62f          	sc.w.aq	a2,a4,(a3)
   1306a:	fa7d                	bnez	a2,13060 <_nl_expand_alias+0x24>
   1306c:	2781                	sext.w	a5,a5
   1306e:	12079363          	bnez	a5,13194 <_nl_expand_alias+0x158>
   13072:	9f81b783          	ld	a5,-1544(gp) # 6bb08 <locale_alias_path.9009>
   13076:	c3e5                	beqz	a5,13156 <_nl_expand_alias+0x11a>
   13078:	a081bd03          	ld	s10,-1528(gp) # 6bb18 <nmap>
   1307c:	0006db37          	lui	s6,0x6d
   13080:	0005b937          	lui	s2,0x5b
   13084:	03a00413          	li	s0,58
   13088:	040d1b63          	bnez	s10,130de <_nl_expand_alias+0xa2>
   1308c:	9f81b583          	ld	a1,-1544(gp) # 6bb08 <locale_alias_path.9009>
   13090:	4681                	li	a3,0
   13092:	0005c783          	lbu	a5,0(a1)
   13096:	cfad                	beqz	a5,13110 <_nl_expand_alias+0xd4>
   13098:	00158713          	addi	a4,a1,1
   1309c:	852e                	mv	a0,a1
   1309e:	00879b63          	bne	a5,s0,130b4 <_nl_expand_alias+0x78>
   130a2:	00074783          	lbu	a5,0(a4)
   130a6:	853a                	mv	a0,a4
   130a8:	0705                	addi	a4,a4,1
   130aa:	fe878ce3          	beq	a5,s0,130a2 <_nl_expand_alias+0x66>
   130ae:	4685                	li	a3,1
   130b0:	85aa                	mv	a1,a0
   130b2:	d3e5                	beqz	a5,13092 <_nl_expand_alias+0x56>
   130b4:	85aa                	mv	a1,a0
   130b6:	00878763          	beq	a5,s0,130c4 <_nl_expand_alias+0x88>
   130ba:	0015c783          	lbu	a5,1(a1)
   130be:	4685                	li	a3,1
   130c0:	0585                	addi	a1,a1,1
   130c2:	fbf5                	bnez	a5,130b6 <_nl_expand_alias+0x7a>
   130c4:	fcb577e3          	bgeu	a0,a1,13092 <_nl_expand_alias+0x56>
   130c8:	c299                	beqz	a3,130ce <_nl_expand_alias+0x92>
   130ca:	9eb1bc23          	sd	a1,-1544(gp) # 6bb08 <locale_alias_path.9009>
   130ce:	9d89                	subw	a1,a1,a0
   130d0:	c07ff0ef          	jal	ra,12cd6 <read_alias_file>
   130d4:	dd45                	beqz	a0,1308c <_nl_expand_alias+0x50>
   130d6:	a081bd03          	ld	s10,-1528(gp) # 6bb18 <nmap>
   130da:	fa0d09e3          	beqz	s10,1308c <_nl_expand_alias+0x50>
   130de:	050b3c03          	ld	s8,80(s6) # 6d050 <map>
   130e2:	4d81                	li	s11,0
   130e4:	01bd0bb3          	add	s7,s10,s11
   130e8:	001bdb93          	srli	s7,s7,0x1
   130ec:	004b9c93          	slli	s9,s7,0x4
   130f0:	9ce2                	add	s9,s9,s8
   130f2:	000cb583          	ld	a1,0(s9)
   130f6:	e6890613          	addi	a2,s2,-408 # 5ae68 <_nl_C_locobj>
   130fa:	8526                	mv	a0,s1
   130fc:	3140c0ef          	jal	ra,1f410 <__strcasecmp_l>
   13100:	04054763          	bltz	a0,1314e <_nl_expand_alias+0x112>
   13104:	c125                	beqz	a0,13164 <_nl_expand_alias+0x128>
   13106:	001b8d93          	addi	s11,s7,1
   1310a:	fdadede3          	bltu	s11,s10,130e4 <_nl_expand_alias+0xa8>
   1310e:	bfbd                	j	1308c <_nl_expand_alias+0x50>
   13110:	c299                	beqz	a3,13116 <_nl_expand_alias+0xda>
   13112:	9eb1bc23          	sd	a1,-1544(gp) # 6bb08 <locale_alias_path.9009>
   13116:	4781                	li	a5,0
   13118:	4701                	li	a4,0
   1311a:	a2018693          	addi	a3,gp,-1504 # 6bb30 <lock>
   1311e:	0f50000f          	fence	iorw,ow
   13122:	08e6a72f          	amoswap.w	a4,a4,(a3)
   13126:	2701                	sext.w	a4,a4
   13128:	4685                	li	a3,1
   1312a:	04e6ca63          	blt	a3,a4,1317e <_nl_expand_alias+0x142>
   1312e:	70a6                	ld	ra,104(sp)
   13130:	7406                	ld	s0,96(sp)
   13132:	64e6                	ld	s1,88(sp)
   13134:	6946                	ld	s2,80(sp)
   13136:	69a6                	ld	s3,72(sp)
   13138:	6a06                	ld	s4,64(sp)
   1313a:	7ae2                	ld	s5,56(sp)
   1313c:	7b42                	ld	s6,48(sp)
   1313e:	7ba2                	ld	s7,40(sp)
   13140:	7c02                	ld	s8,32(sp)
   13142:	6ce2                	ld	s9,24(sp)
   13144:	6d42                	ld	s10,16(sp)
   13146:	6da2                	ld	s11,8(sp)
   13148:	853e                	mv	a0,a5
   1314a:	6165                	addi	sp,sp,112
   1314c:	8082                	ret
   1314e:	8d5e                	mv	s10,s7
   13150:	f9adeae3          	bltu	s11,s10,130e4 <_nl_expand_alias+0xa8>
   13154:	bf25                	j	1308c <_nl_expand_alias+0x50>
   13156:	0004b7b7          	lui	a5,0x4b
   1315a:	20078793          	addi	a5,a5,512 # 4b200 <_nl_default_dirname>
   1315e:	9ef1bc23          	sd	a5,-1544(gp) # 6bb08 <locale_alias_path.9009>
   13162:	bf19                	j	13078 <_nl_expand_alias+0x3c>
   13164:	008cb783          	ld	a5,8(s9)
   13168:	4701                	li	a4,0
   1316a:	a2018693          	addi	a3,gp,-1504 # 6bb30 <lock>
   1316e:	0f50000f          	fence	iorw,ow
   13172:	08e6a72f          	amoswap.w	a4,a4,(a3)
   13176:	2701                	sext.w	a4,a4
   13178:	4685                	li	a3,1
   1317a:	fae6dae3          	bge	a3,a4,1312e <_nl_expand_alias+0xf2>
   1317e:	06200893          	li	a7,98
   13182:	a2018513          	addi	a0,gp,-1504 # 6bb30 <lock>
   13186:	08100593          	li	a1,129
   1318a:	4605                	li	a2,1
   1318c:	4681                	li	a3,0
   1318e:	00000073          	ecall
   13192:	bf71                	j	1312e <_nl_expand_alias+0xf2>
   13194:	a2018513          	addi	a0,gp,-1504 # 6bb30 <lock>
   13198:	3ee0e0ef          	jal	ra,21586 <__lll_lock_wait_private>
   1319c:	bdd9                	j	13072 <_nl_expand_alias+0x36>

000000000001319e <_nl_make_l10nflist>:
   1319e:	7131                	addi	sp,sp,-192
   131a0:	ed4e                	sd	s3,152(sp)
   131a2:	89ba                	mv	s3,a4
   131a4:	872a                	mv	a4,a0
   131a6:	854e                	mv	a0,s3
   131a8:	f922                	sd	s0,176(sp)
   131aa:	f526                	sd	s1,168(sp)
   131ac:	f14a                	sd	s2,160(sp)
   131ae:	e952                	sd	s4,144(sp)
   131b0:	e556                	sd	s5,136(sp)
   131b2:	e15a                	sd	s6,128(sp)
   131b4:	fcde                	sd	s7,120(sp)
   131b6:	f8e2                	sd	s8,112(sp)
   131b8:	f0ea                	sd	s10,96(sp)
   131ba:	8936                	mv	s2,a3
   131bc:	84b2                	mv	s1,a2
   131be:	f03a                	sd	a4,32(sp)
   131c0:	8c3e                	mv	s8,a5
   131c2:	e4be                	sd	a5,72(sp)
   131c4:	fd06                	sd	ra,184(sp)
   131c6:	f4e6                	sd	s9,104(sp)
   131c8:	ecee                	sd	s11,88(sp)
   131ca:	8a2e                	mv	s4,a1
   131cc:	f442                	sd	a6,40(sp)
   131ce:	8d46                	mv	s10,a7
   131d0:	5c40b0ef          	jal	ra,1e794 <strlen>
   131d4:	474e                	lw	a4,208(sp)
   131d6:	00497793          	andi	a5,s2,4
   131da:	8baa                	mv	s7,a0
   131dc:	e0ba                	sd	a4,64(sp)
   131de:	00248b13          	addi	s6,s1,2
   131e2:	00078a9b          	sext.w	s5,a5
   131e6:	4401                	li	s0,0
   131e8:	c791                	beqz	a5,131f4 <_nl_make_l10nflist+0x56>
   131ea:	8562                	mv	a0,s8
   131ec:	5a80b0ef          	jal	ra,1e794 <strlen>
   131f0:	00150413          	addi	s0,a0,1
   131f4:	00297793          	andi	a5,s2,2
   131f8:	0007871b          	sext.w	a4,a5
   131fc:	f83a                	sd	a4,48(sp)
   131fe:	9bda                	add	s7,s7,s6
   13200:	4b01                	li	s6,0
   13202:	c791                	beqz	a5,1320e <_nl_make_l10nflist+0x70>
   13204:	7522                	ld	a0,40(sp)
   13206:	58e0b0ef          	jal	ra,1e794 <strlen>
   1320a:	00150b13          	addi	s6,a0,1
   1320e:	00197d93          	andi	s11,s2,1
   13212:	9ba2                	add	s7,s7,s0
   13214:	4401                	li	s0,0
   13216:	000d8763          	beqz	s11,13224 <_nl_make_l10nflist+0x86>
   1321a:	856a                	mv	a0,s10
   1321c:	5780b0ef          	jal	ra,1e794 <strlen>
   13220:	00150413          	addi	s0,a0,1
   13224:	00897793          	andi	a5,s2,8
   13228:	0007871b          	sext.w	a4,a5
   1322c:	fc3a                	sd	a4,56(sp)
   1322e:	9bda                	add	s7,s7,s6
   13230:	4c01                	li	s8,0
   13232:	c791                	beqz	a5,1323e <_nl_make_l10nflist+0xa0>
   13234:	650e                	ld	a0,192(sp)
   13236:	55e0b0ef          	jal	ra,1e794 <strlen>
   1323a:	00150c13          	addi	s8,a0,1
   1323e:	652e                	ld	a0,200(sp)
   13240:	945e                	add	s0,s0,s7
   13242:	9462                	add	s0,s0,s8
   13244:	5500b0ef          	jal	ra,1e794 <strlen>
   13248:	8b2a                	mv	s6,a0
   1324a:	9522                	add	a0,a0,s0
   1324c:	0c00a0ef          	jal	ra,1d30c <__libc_malloc>
   13250:	842a                	mv	s0,a0
   13252:	2c050763          	beqz	a0,13520 <_nl_make_l10nflist+0x382>
   13256:	8626                	mv	a2,s1
   13258:	85d2                	mv	a1,s4
   1325a:	1e80c0ef          	jal	ra,1f442 <memcpy>
   1325e:	c89d                	beqz	s1,13294 <_nl_make_l10nflist+0xf6>
   13260:	8c22                	mv	s8,s0
   13262:	8562                	mv	a0,s8
   13264:	5300b0ef          	jal	ra,1e794 <strlen>
   13268:	fff54693          	not	a3,a0
   1326c:	8ca6                	mv	s9,s1
   1326e:	9cb6                	add	s9,s9,a3
   13270:	03a00b93          	li	s7,58
   13274:	9562                	add	a0,a0,s8
   13276:	000c8f63          	beqz	s9,13294 <_nl_make_l10nflist+0xf6>
   1327a:	00150c13          	addi	s8,a0,1
   1327e:	01750023          	sb	s7,0(a0)
   13282:	8562                	mv	a0,s8
   13284:	5100b0ef          	jal	ra,1e794 <strlen>
   13288:	fff54693          	not	a3,a0
   1328c:	9cb6                	add	s9,s9,a3
   1328e:	9562                	add	a0,a0,s8
   13290:	fe0c95e3          	bnez	s9,1327a <_nl_make_l10nflist+0xdc>
   13294:	02f00793          	li	a5,47
   13298:	00940533          	add	a0,s0,s1
   1329c:	fef50fa3          	sb	a5,-1(a0)
   132a0:	85ce                	mv	a1,s3
   132a2:	13e0c0ef          	jal	ra,1f3e0 <__stpcpy>
   132a6:	87aa                	mv	a5,a0
   132a8:	1c0a9f63          	bnez	s5,13486 <_nl_make_l10nflist+0x2e8>
   132ac:	7742                	ld	a4,48(sp)
   132ae:	00178513          	addi	a0,a5,1
   132b2:	18071963          	bnez	a4,13444 <_nl_make_l10nflist+0x2a6>
   132b6:	1a0d9263          	bnez	s11,1345a <_nl_make_l10nflist+0x2bc>
   132ba:	7762                	ld	a4,56(sp)
   132bc:	1a071b63          	bnez	a4,13472 <_nl_make_l10nflist+0x2d4>
   132c0:	65ae                	ld	a1,200(sp)
   132c2:	02f00713          	li	a4,47
   132c6:	00e78023          	sb	a4,0(a5)
   132ca:	001b0613          	addi	a2,s6,1
   132ce:	1740c0ef          	jal	ra,1f442 <memcpy>
   132d2:	7782                	ld	a5,32(sp)
   132d4:	0007bb03          	ld	s6,0(a5)
   132d8:	240b0263          	beqz	s6,1351c <_nl_make_l10nflist+0x37e>
   132dc:	8bda                	mv	s7,s6
   132de:	4a81                	li	s5,0
   132e0:	000bb503          	ld	a0,0(s7)
   132e4:	85a2                	mv	a1,s0
   132e6:	c901                	beqz	a0,132f6 <_nl_make_l10nflist+0x158>
   132e8:	3280b0ef          	jal	ra,1e610 <strcmp>
   132ec:	12050963          	beqz	a0,1341e <_nl_make_l10nflist+0x280>
   132f0:	00054763          	bltz	a0,132fe <_nl_make_l10nflist+0x160>
   132f4:	8ade                	mv	s5,s7
   132f6:	018bbb83          	ld	s7,24(s7)
   132fa:	fe0b93e3          	bnez	s7,132e0 <_nl_make_l10nflist+0x142>
   132fe:	6786                	ld	a5,64(sp)
   13300:	10078e63          	beqz	a5,1341c <_nl_make_l10nflist+0x27e>
   13304:	7775                	lui	a4,0xffffd
   13306:	55570713          	addi	a4,a4,1365 # ffffffffffffd555 <__BSS_END__+0xfffffffffff904dd>
   1330a:	4019579b          	sraiw	a5,s2,0x1
   1330e:	8ff9                	and	a5,a5,a4
   13310:	6715                	lui	a4,0x5
   13312:	55570713          	addi	a4,a4,1365 # 5555 <catch_hook+0x54fd>
   13316:	00e97733          	and	a4,s2,a4
   1331a:	9f3d                	addw	a4,a4,a5
   1331c:	76fd                	lui	a3,0xfffff
   1331e:	4027579b          	sraiw	a5,a4,0x2
   13322:	33368693          	addi	a3,a3,819 # fffffffffffff333 <__BSS_END__+0xfffffffffff922bb>
   13326:	8efd                	and	a3,a3,a5
   13328:	678d                	lui	a5,0x3
   1332a:	33378793          	addi	a5,a5,819 # 3333 <catch_hook+0x32db>
   1332e:	8ff9                	and	a5,a5,a4
   13330:	9fb5                	addw	a5,a5,a3
   13332:	4047d71b          	sraiw	a4,a5,0x4
   13336:	6b85                	lui	s7,0x1
   13338:	f0fb8b93          	addi	s7,s7,-241 # f0f <catch_hook+0xeb7>
   1333c:	9fb9                	addw	a5,a5,a4
   1333e:	0177f7b3          	and	a5,a5,s7
   13342:	4087db9b          	sraiw	s7,a5,0x8
   13346:	00fb87bb          	addw	a5,s7,a5
   1334a:	4b85                	li	s7,1
   1334c:	00fb9cbb          	sllw	s9,s7,a5
   13350:	8da6                	mv	s11,s1
   13352:	8c52                	mv	s8,s4
   13354:	4b81                	li	s7,0
   13356:	1a048963          	beqz	s1,13508 <_nl_make_l10nflist+0x36a>
   1335a:	8562                	mv	a0,s8
   1335c:	4380b0ef          	jal	ra,1e794 <strlen>
   13360:	fff54693          	not	a3,a0
   13364:	9db6                	add	s11,s11,a3
   13366:	0505                	addi	a0,a0,1
   13368:	9c2a                	add	s8,s8,a0
   1336a:	0b85                	addi	s7,s7,1
   1336c:	fe0d97e3          	bnez	s11,1335a <_nl_make_l10nflist+0x1bc>
   13370:	039b8bb3          	mul	s7,s7,s9
   13374:	005b8513          	addi	a0,s7,5
   13378:	050e                	slli	a0,a0,0x3
   1337a:	793090ef          	jal	ra,1d30c <__libc_malloc>
   1337e:	8baa                	mv	s7,a0
   13380:	1a050263          	beqz	a0,13524 <_nl_make_l10nflist+0x386>
   13384:	e100                	sd	s0,0(a0)
   13386:	8c26                	mv	s8,s1
   13388:	8452                	mv	s0,s4
   1338a:	8522                	mv	a0,s0
   1338c:	4080b0ef          	jal	ra,1e794 <strlen>
   13390:	fff54713          	not	a4,a0
   13394:	9c3a                	add	s8,s8,a4
   13396:	0505                	addi	a0,a0,1
   13398:	942a                	add	s0,s0,a0
   1339a:	0d85                	addi	s11,s11,1
   1339c:	fe0c17e3          	bnez	s8,1338a <_nl_make_l10nflist+0x1ec>
   133a0:	4785                	li	a5,1
   133a2:	00fd9763          	bne	s11,a5,133b0 <_nl_make_l10nflist+0x212>
   133a6:	00397793          	andi	a5,s2,3
   133aa:	17f5                	addi	a5,a5,-3
   133ac:	0017b793          	seqz	a5,a5
   133b0:	00fba423          	sw	a5,8(s7)
   133b4:	000bb823          	sd	zero,16(s7)
   133b8:	120a8e63          	beqz	s5,134f4 <_nl_make_l10nflist+0x356>
   133bc:	018ab783          	ld	a5,24(s5)
   133c0:	00fbbc23          	sd	a5,24(s7)
   133c4:	017abc23          	sd	s7,24(s5)
   133c8:	12048e63          	beqz	s1,13504 <_nl_make_l10nflist+0x366>
   133cc:	8aa6                	mv	s5,s1
   133ce:	8452                	mv	s0,s4
   133d0:	4b01                	li	s6,0
   133d2:	8522                	mv	a0,s0
   133d4:	3c00b0ef          	jal	ra,1e794 <strlen>
   133d8:	fff54793          	not	a5,a0
   133dc:	9abe                	add	s5,s5,a5
   133de:	0505                	addi	a0,a0,1
   133e0:	942a                	add	s0,s0,a0
   133e2:	0b05                	addi	s6,s6,1
   133e4:	fe0a97e3          	bnez	s5,133d2 <_nl_make_l10nflist+0x234>
   133e8:	4785                	li	a5,1
   133ea:	844a                	mv	s0,s2
   133ec:	10fb0163          	beq	s6,a5,134ee <_nl_make_l10nflist+0x350>
   133f0:	10044863          	bltz	s0,13500 <_nl_make_l10nflist+0x362>
   133f4:	fff94b13          	not	s6,s2
   133f8:	4a81                	li	s5,0
   133fa:	009a0c33          	add	s8,s4,s1
   133fe:	4c85                	li	s9,1
   13400:	597d                	li	s2,-1
   13402:	016477b3          	and	a5,s0,s6
   13406:	cbd1                	beqz	a5,1349a <_nl_make_l10nflist+0x2fc>
   13408:	347d                	addiw	s0,s0,-1
   1340a:	ff241ce3          	bne	s0,s2,13402 <_nl_make_l10nflist+0x264>
   1340e:	004a8793          	addi	a5,s5,4
   13412:	078e                	slli	a5,a5,0x3
   13414:	97de                	add	a5,a5,s7
   13416:	0007b023          	sd	zero,0(a5)
   1341a:	a029                	j	13424 <_nl_make_l10nflist+0x286>
   1341c:	4b81                	li	s7,0
   1341e:	8522                	mv	a0,s0
   13420:	3680a0ef          	jal	ra,1d788 <__free>
   13424:	70ea                	ld	ra,184(sp)
   13426:	744a                	ld	s0,176(sp)
   13428:	74aa                	ld	s1,168(sp)
   1342a:	790a                	ld	s2,160(sp)
   1342c:	69ea                	ld	s3,152(sp)
   1342e:	6a4a                	ld	s4,144(sp)
   13430:	6aaa                	ld	s5,136(sp)
   13432:	6b0a                	ld	s6,128(sp)
   13434:	7c46                	ld	s8,112(sp)
   13436:	7ca6                	ld	s9,104(sp)
   13438:	7d06                	ld	s10,96(sp)
   1343a:	6de6                	ld	s11,88(sp)
   1343c:	855e                	mv	a0,s7
   1343e:	7be6                	ld	s7,120(sp)
   13440:	6129                	addi	sp,sp,192
   13442:	8082                	ret
   13444:	75a2                	ld	a1,40(sp)
   13446:	02e00713          	li	a4,46
   1344a:	00e78023          	sb	a4,0(a5)
   1344e:	7930b0ef          	jal	ra,1f3e0 <__stpcpy>
   13452:	87aa                	mv	a5,a0
   13454:	0505                	addi	a0,a0,1
   13456:	e60d82e3          	beqz	s11,132ba <_nl_make_l10nflist+0x11c>
   1345a:	02e00713          	li	a4,46
   1345e:	00e78023          	sb	a4,0(a5)
   13462:	85ea                	mv	a1,s10
   13464:	77d0b0ef          	jal	ra,1f3e0 <__stpcpy>
   13468:	7762                	ld	a4,56(sp)
   1346a:	87aa                	mv	a5,a0
   1346c:	0505                	addi	a0,a0,1
   1346e:	e40709e3          	beqz	a4,132c0 <_nl_make_l10nflist+0x122>
   13472:	658e                	ld	a1,192(sp)
   13474:	04000713          	li	a4,64
   13478:	00e78023          	sb	a4,0(a5)
   1347c:	7650b0ef          	jal	ra,1f3e0 <__stpcpy>
   13480:	87aa                	mv	a5,a0
   13482:	0505                	addi	a0,a0,1
   13484:	bd35                	j	132c0 <_nl_make_l10nflist+0x122>
   13486:	65a6                	ld	a1,72(sp)
   13488:	05f00713          	li	a4,95
   1348c:	00e50023          	sb	a4,0(a0)
   13490:	0505                	addi	a0,a0,1
   13492:	74f0b0ef          	jal	ra,1f3e0 <__stpcpy>
   13496:	87aa                	mv	a5,a0
   13498:	bd11                	j	132ac <_nl_make_l10nflist+0x10e>
   1349a:	4d81                	li	s11,0
   1349c:	040d8663          	beqz	s11,134e8 <_nl_make_l10nflist+0x34a>
   134a0:	856e                	mv	a0,s11
   134a2:	f78df3e3          	bgeu	s11,s8,13408 <_nl_make_l10nflist+0x26a>
   134a6:	2ee0b0ef          	jal	ra,1e794 <strlen>
   134aa:	00150793          	addi	a5,a0,1
   134ae:	9dbe                	add	s11,s11,a5
   134b0:	f58dfce3          	bgeu	s11,s8,13408 <_nl_make_l10nflist+0x26a>
   134b4:	856e                	mv	a0,s11
   134b6:	2de0b0ef          	jal	ra,1e794 <strlen>
   134ba:	67ae                	ld	a5,200(sp)
   134bc:	00150613          	addi	a2,a0,1
   134c0:	7822                	ld	a6,40(sp)
   134c2:	e43e                	sd	a5,8(sp)
   134c4:	678e                	ld	a5,192(sp)
   134c6:	7502                	ld	a0,32(sp)
   134c8:	e866                	sd	s9,16(sp)
   134ca:	e03e                	sd	a5,0(sp)
   134cc:	67a6                	ld	a5,72(sp)
   134ce:	88ea                	mv	a7,s10
   134d0:	874e                	mv	a4,s3
   134d2:	86a2                	mv	a3,s0
   134d4:	85ee                	mv	a1,s11
   134d6:	cc9ff0ef          	jal	ra,1319e <_nl_make_l10nflist>
   134da:	0a85                	addi	s5,s5,1
   134dc:	003a9793          	slli	a5,s5,0x3
   134e0:	97de                	add	a5,a5,s7
   134e2:	ef88                	sd	a0,24(a5)
   134e4:	fa0d9ee3          	bnez	s11,134a0 <_nl_make_l10nflist+0x302>
   134e8:	d085                	beqz	s1,13408 <_nl_make_l10nflist+0x26a>
   134ea:	8dd2                	mv	s11,s4
   134ec:	b7e1                	j	134b4 <_nl_make_l10nflist+0x316>
   134ee:	fff9041b          	addiw	s0,s2,-1
   134f2:	bdfd                	j	133f0 <_nl_make_l10nflist+0x252>
   134f4:	7782                	ld	a5,32(sp)
   134f6:	016bbc23          	sd	s6,24(s7)
   134fa:	0177b023          	sd	s7,0(a5)
   134fe:	b5e9                	j	133c8 <_nl_make_l10nflist+0x22a>
   13500:	4a81                	li	s5,0
   13502:	b731                	j	1340e <_nl_make_l10nflist+0x270>
   13504:	844a                	mv	s0,s2
   13506:	b5ed                	j	133f0 <_nl_make_l10nflist+0x252>
   13508:	02800513          	li	a0,40
   1350c:	601090ef          	jal	ra,1d30c <__libc_malloc>
   13510:	8baa                	mv	s7,a0
   13512:	c909                	beqz	a0,13524 <_nl_make_l10nflist+0x386>
   13514:	008bb023          	sd	s0,0(s7)
   13518:	4785                	li	a5,1
   1351a:	bd59                	j	133b0 <_nl_make_l10nflist+0x212>
   1351c:	4a81                	li	s5,0
   1351e:	b3c5                	j	132fe <_nl_make_l10nflist+0x160>
   13520:	4b81                	li	s7,0
   13522:	b709                	j	13424 <_nl_make_l10nflist+0x286>
   13524:	8522                	mv	a0,s0
   13526:	2620a0ef          	jal	ra,1d788 <__free>
   1352a:	4b81                	li	s7,0
   1352c:	bde5                	j	13424 <_nl_make_l10nflist+0x286>

000000000001352e <_nl_normalize_codeset>:
   1352e:	7179                	addi	sp,sp,-48
   13530:	f406                	sd	ra,40(sp)
   13532:	f022                	sd	s0,32(sp)
   13534:	ec26                	sd	s1,24(sp)
   13536:	e84a                	sd	s2,16(sp)
   13538:	e44e                	sd	s3,8(sp)
   1353a:	cde1                	beqz	a1,13612 <_nl_normalize_codeset+0xe4>
   1353c:	0005b9b7          	lui	s3,0x5b
   13540:	e6898993          	addi	s3,s3,-408 # 5ae68 <_nl_C_locobj>
   13544:	0689b403          	ld	s0,104(s3)
   13548:	00a58633          	add	a2,a1,a0
   1354c:	84ae                	mv	s1,a1
   1354e:	892a                	mv	s2,a0
   13550:	872a                	mv	a4,a0
   13552:	4805                	li	a6,1
   13554:	4501                	li	a0,0
   13556:	45a5                	li	a1,9
   13558:	00074783          	lbu	a5,0(a4)
   1355c:	0705                	addi	a4,a4,1
   1355e:	00179693          	slli	a3,a5,0x1
   13562:	96a2                	add	a3,a3,s0
   13564:	0006d683          	lhu	a3,0(a3)
   13568:	fd07879b          	addiw	a5,a5,-48
   1356c:	8aa1                	andi	a3,a3,8
   1356e:	c689                	beqz	a3,13578 <_nl_normalize_codeset+0x4a>
   13570:	0505                	addi	a0,a0,1
   13572:	00f5f363          	bgeu	a1,a5,13578 <_nl_normalize_codeset+0x4a>
   13576:	4801                	li	a6,0
   13578:	fee610e3          	bne	a2,a4,13558 <_nl_normalize_codeset+0x2a>
   1357c:	06081563          	bnez	a6,135e6 <_nl_normalize_codeset+0xb8>
   13580:	0505                	addi	a0,a0,1
   13582:	58b090ef          	jal	ra,1d30c <__libc_malloc>
   13586:	882a                	mv	a6,a0
   13588:	cd2d                	beqz	a0,13602 <_nl_normalize_codeset+0xd4>
   1358a:	0709b883          	ld	a7,112(s3)
   1358e:	4701                	li	a4,0
   13590:	4325                	li	t1,9
   13592:	a801                	j	135a2 <_nl_normalize_codeset+0x74>
   13594:	421c                	lw	a5,0(a2)
   13596:	0805                	addi	a6,a6,1
   13598:	fef80fa3          	sb	a5,-1(a6)
   1359c:	0705                	addi	a4,a4,1
   1359e:	02977b63          	bgeu	a4,s1,135d4 <_nl_normalize_codeset+0xa6>
   135a2:	00e907b3          	add	a5,s2,a4
   135a6:	0007c783          	lbu	a5,0(a5)
   135aa:	00179693          	slli	a3,a5,0x1
   135ae:	96a2                	add	a3,a3,s0
   135b0:	0006d683          	lhu	a3,0(a3)
   135b4:	00279613          	slli	a2,a5,0x2
   135b8:	9646                	add	a2,a2,a7
   135ba:	4006f693          	andi	a3,a3,1024
   135be:	fd07859b          	addiw	a1,a5,-48
   135c2:	fae9                	bnez	a3,13594 <_nl_normalize_codeset+0x66>
   135c4:	fcb36ce3          	bltu	t1,a1,1359c <_nl_normalize_codeset+0x6e>
   135c8:	00f80023          	sb	a5,0(a6)
   135cc:	0705                	addi	a4,a4,1
   135ce:	0805                	addi	a6,a6,1
   135d0:	fc9769e3          	bltu	a4,s1,135a2 <_nl_normalize_codeset+0x74>
   135d4:	00080023          	sb	zero,0(a6)
   135d8:	70a2                	ld	ra,40(sp)
   135da:	7402                	ld	s0,32(sp)
   135dc:	64e2                	ld	s1,24(sp)
   135de:	6942                	ld	s2,16(sp)
   135e0:	69a2                	ld	s3,8(sp)
   135e2:	6145                	addi	sp,sp,48
   135e4:	8082                	ret
   135e6:	0511                	addi	a0,a0,4
   135e8:	525090ef          	jal	ra,1d30c <__libc_malloc>
   135ec:	c919                	beqz	a0,13602 <_nl_normalize_codeset+0xd4>
   135ee:	006f77b7          	lui	a5,0x6f7
   135f2:	36978793          	addi	a5,a5,873 # 6f7369 <__BSS_END__+0x68a2f1>
   135f6:	0689b403          	ld	s0,104(s3)
   135fa:	c11c                	sw	a5,0(a0)
   135fc:	00350813          	addi	a6,a0,3
   13600:	b769                	j	1358a <_nl_normalize_codeset+0x5c>
   13602:	70a2                	ld	ra,40(sp)
   13604:	7402                	ld	s0,32(sp)
   13606:	64e2                	ld	s1,24(sp)
   13608:	6942                	ld	s2,16(sp)
   1360a:	69a2                	ld	s3,8(sp)
   1360c:	4501                	li	a0,0
   1360e:	6145                	addi	sp,sp,48
   13610:	8082                	ret
   13612:	4511                	li	a0,4
   13614:	4f9090ef          	jal	ra,1d30c <__libc_malloc>
   13618:	d56d                	beqz	a0,13602 <_nl_normalize_codeset+0xd4>
   1361a:	006f77b7          	lui	a5,0x6f7
   1361e:	36978793          	addi	a5,a5,873 # 6f7369 <__BSS_END__+0x68a2f1>
   13622:	c11c                	sw	a5,0(a0)
   13624:	00350813          	addi	a6,a0,3
   13628:	b775                	j	135d4 <_nl_normalize_codeset+0xa6>

000000000001362a <_nl_explode_name>:
   1362a:	715d                	addi	sp,sp,-80
   1362c:	00063023          	sd	zero,0(a2)
   13630:	fc26                	sd	s1,56(sp)
   13632:	f84a                	sd	s2,48(sp)
   13634:	e486                	sd	ra,72(sp)
   13636:	e0a2                	sd	s0,64(sp)
   13638:	f44e                	sd	s3,40(sp)
   1363a:	f052                	sd	s4,32(sp)
   1363c:	ec56                	sd	s5,24(sp)
   1363e:	e85a                	sd	s6,16(sp)
   13640:	e45e                	sd	s7,8(sp)
   13642:	0006b023          	sd	zero,0(a3)
   13646:	00073023          	sd	zero,0(a4)
   1364a:	0007b023          	sd	zero,0(a5)
   1364e:	e188                	sd	a0,0(a1)
   13650:	00054583          	lbu	a1,0(a0)
   13654:	84b6                	mv	s1,a3
   13656:	893a                	mv	s2,a4
   13658:	c585                	beqz	a1,13680 <_nl_explode_name+0x56>
   1365a:	8ab2                	mv	s5,a2
   1365c:	89be                	mv	s3,a5
   1365e:	842a                	mv	s0,a0
   13660:	05f00813          	li	a6,95
   13664:	04000893          	li	a7,64
   13668:	02e00313          	li	t1,46
   1366c:	0f058163          	beq	a1,a6,1374e <_nl_explode_name+0x124>
   13670:	05158b63          	beq	a1,a7,136c6 <_nl_explode_name+0x9c>
   13674:	04658963          	beq	a1,t1,136c6 <_nl_explode_name+0x9c>
   13678:	00144583          	lbu	a1,1(s0)
   1367c:	0405                	addi	s0,s0,1
   1367e:	f5fd                	bnez	a1,1366c <_nl_explode_name+0x42>
   13680:	4a01                	li	s4,0
   13682:	00093403          	ld	s0,0(s2)
   13686:	609c                	ld	a5,0(s1)
   13688:	c781                	beqz	a5,13690 <_nl_explode_name+0x66>
   1368a:	0007c783          	lbu	a5,0(a5)
   1368e:	cb8d                	beqz	a5,136c0 <_nl_explode_name+0x96>
   13690:	c411                	beqz	s0,1369c <_nl_explode_name+0x72>
   13692:	00044783          	lbu	a5,0(s0)
   13696:	e399                	bnez	a5,1369c <_nl_explode_name+0x72>
   13698:	ffda7a13          	andi	s4,s4,-3
   1369c:	60a6                	ld	ra,72(sp)
   1369e:	6406                	ld	s0,64(sp)
   136a0:	74e2                	ld	s1,56(sp)
   136a2:	7942                	ld	s2,48(sp)
   136a4:	79a2                	ld	s3,40(sp)
   136a6:	6ae2                	ld	s5,24(sp)
   136a8:	6b42                	ld	s6,16(sp)
   136aa:	6ba2                	ld	s7,8(sp)
   136ac:	8552                	mv	a0,s4
   136ae:	7a02                	ld	s4,32(sp)
   136b0:	6161                	addi	sp,sp,80
   136b2:	8082                	ret
   136b4:	609c                	ld	a5,0(s1)
   136b6:	c7e5                	beqz	a5,1379e <_nl_explode_name+0x174>
   136b8:	0007c783          	lbu	a5,0(a5)
   136bc:	e3ed                	bnez	a5,1379e <_nl_explode_name+0x174>
   136be:	8a5e                	mv	s4,s7
   136c0:	ffba7a13          	andi	s4,s4,-5
   136c4:	b7f1                	j	13690 <_nl_explode_name+0x66>
   136c6:	4a01                	li	s4,0
   136c8:	fa850ce3          	beq	a0,s0,13680 <_nl_explode_name+0x56>
   136cc:	00044703          	lbu	a4,0(s0)
   136d0:	02e00793          	li	a5,46
   136d4:	04f71b63          	bne	a4,a5,1372a <_nl_explode_name+0x100>
   136d8:	00040023          	sb	zero,0(s0)
   136dc:	00140513          	addi	a0,s0,1
   136e0:	00a93023          	sd	a0,0(s2)
   136e4:	00144703          	lbu	a4,1(s0)
   136e8:	002a6b93          	ori	s7,s4,2
   136ec:	842a                	mv	s0,a0
   136ee:	85ba                	mv	a1,a4
   136f0:	04000793          	li	a5,64
   136f4:	c35d                	beqz	a4,1379a <_nl_explode_name+0x170>
   136f6:	08f58763          	beq	a1,a5,13784 <_nl_explode_name+0x15a>
   136fa:	00144583          	lbu	a1,1(s0)
   136fe:	0405                	addi	s0,s0,1
   13700:	f9fd                	bnez	a1,136f6 <_nl_explode_name+0xcc>
   13702:	fa8509e3          	beq	a0,s0,136b4 <_nl_explode_name+0x8a>
   13706:	40a405b3          	sub	a1,s0,a0
   1370a:	e25ff0ef          	jal	ra,1352e <_nl_normalize_codeset>
   1370e:	00a9b023          	sd	a0,0(s3)
   13712:	8b2a                	mv	s6,a0
   13714:	c559                	beqz	a0,137a2 <_nl_explode_name+0x178>
   13716:	00093503          	ld	a0,0(s2)
   1371a:	85da                	mv	a1,s6
   1371c:	6f50a0ef          	jal	ra,1e610 <strcmp>
   13720:	c535                	beqz	a0,1378c <_nl_explode_name+0x162>
   13722:	00044703          	lbu	a4,0(s0)
   13726:	003a6a13          	ori	s4,s4,3
   1372a:	04000793          	li	a5,64
   1372e:	f4f71ae3          	bne	a4,a5,13682 <_nl_explode_name+0x58>
   13732:	00140793          	addi	a5,s0,1
   13736:	00040023          	sb	zero,0(s0)
   1373a:	00fab023          	sd	a5,0(s5)
   1373e:	00144783          	lbu	a5,1(s0)
   13742:	00093403          	ld	s0,0(s2)
   13746:	d3a1                	beqz	a5,13686 <_nl_explode_name+0x5c>
   13748:	008a6a13          	ori	s4,s4,8
   1374c:	bf2d                	j	13686 <_nl_explode_name+0x5c>
   1374e:	f28509e3          	beq	a0,s0,13680 <_nl_explode_name+0x56>
   13752:	00040023          	sb	zero,0(s0)
   13756:	00140513          	addi	a0,s0,1
   1375a:	e088                	sd	a0,0(s1)
   1375c:	00144583          	lbu	a1,1(s0)
   13760:	02e00793          	li	a5,46
   13764:	04000713          	li	a4,64
   13768:	c989                	beqz	a1,1377a <_nl_explode_name+0x150>
   1376a:	00f58a63          	beq	a1,a5,1377e <_nl_explode_name+0x154>
   1376e:	00e58863          	beq	a1,a4,1377e <_nl_explode_name+0x154>
   13772:	00154583          	lbu	a1,1(a0)
   13776:	0505                	addi	a0,a0,1
   13778:	f9ed                	bnez	a1,1376a <_nl_explode_name+0x140>
   1377a:	4a11                	li	s4,4
   1377c:	b719                	j	13682 <_nl_explode_name+0x58>
   1377e:	842a                	mv	s0,a0
   13780:	4a11                	li	s4,4
   13782:	b7a9                	j	136cc <_nl_explode_name+0xa2>
   13784:	f88511e3          	bne	a0,s0,13706 <_nl_explode_name+0xdc>
   13788:	8a5e                	mv	s4,s7
   1378a:	b745                	j	1372a <_nl_explode_name+0x100>
   1378c:	855a                	mv	a0,s6
   1378e:	7fb090ef          	jal	ra,1d788 <__free>
   13792:	00044703          	lbu	a4,0(s0)
   13796:	8a5e                	mv	s4,s7
   13798:	bf49                	j	1372a <_nl_explode_name+0x100>
   1379a:	8a5e                	mv	s4,s7
   1379c:	b5dd                	j	13682 <_nl_explode_name+0x58>
   1379e:	8a5e                	mv	s4,s7
   137a0:	bdcd                	j	13692 <_nl_explode_name+0x68>
   137a2:	5a7d                	li	s4,-1
   137a4:	bde5                	j	1369c <_nl_explode_name+0x72>

00000000000137a6 <__gettext_free_exp>:
   137a6:	c521                	beqz	a0,137ee <__gettext_free_exp+0x48>
   137a8:	411c                	lw	a5,0(a0)
   137aa:	1141                	addi	sp,sp,-16
   137ac:	e022                	sd	s0,0(sp)
   137ae:	e406                	sd	ra,8(sp)
   137b0:	4709                	li	a4,2
   137b2:	842a                	mv	s0,a0
   137b4:	02e78163          	beq	a5,a4,137d6 <__gettext_free_exp+0x30>
   137b8:	470d                	li	a4,3
   137ba:	00e78b63          	beq	a5,a4,137d0 <__gettext_free_exp+0x2a>
   137be:	4705                	li	a4,1
   137c0:	00e78e63          	beq	a5,a4,137dc <__gettext_free_exp+0x36>
   137c4:	8522                	mv	a0,s0
   137c6:	6402                	ld	s0,0(sp)
   137c8:	60a2                	ld	ra,8(sp)
   137ca:	0141                	addi	sp,sp,16
   137cc:	7bd0906f          	j	1d788 <__free>
   137d0:	6d08                	ld	a0,24(a0)
   137d2:	fd5ff0ef          	jal	ra,137a6 <__gettext_free_exp>
   137d6:	6808                	ld	a0,16(s0)
   137d8:	fcfff0ef          	jal	ra,137a6 <__gettext_free_exp>
   137dc:	6408                	ld	a0,8(s0)
   137de:	fc9ff0ef          	jal	ra,137a6 <__gettext_free_exp>
   137e2:	8522                	mv	a0,s0
   137e4:	6402                	ld	s0,0(sp)
   137e6:	60a2                	ld	ra,8(sp)
   137e8:	0141                	addi	sp,sp,16
   137ea:	79f0906f          	j	1d788 <__free>
   137ee:	8082                	ret

00000000000137f0 <new_exp>:
   137f0:	7179                	addi	sp,sp,-48
   137f2:	f022                	sd	s0,32(sp)
   137f4:	e44e                	sd	s3,8(sp)
   137f6:	f406                	sd	ra,40(sp)
   137f8:	ec26                	sd	s1,24(sp)
   137fa:	e84a                	sd	s2,16(sp)
   137fc:	fff5041b          	addiw	s0,a0,-1
   13800:	57fd                	li	a5,-1
   13802:	89ae                	mv	s3,a1
   13804:	08f40263          	beq	s0,a5,13888 <new_exp+0x98>
   13808:	84b2                	mv	s1,a2
   1380a:	892a                	mv	s2,a0
   1380c:	87a2                	mv	a5,s0
   1380e:	567d                	li	a2,-1
   13810:	a019                	j	13816 <new_exp+0x26>
   13812:	02c68e63          	beq	a3,a2,1384e <new_exp+0x5e>
   13816:	00379713          	slli	a4,a5,0x3
   1381a:	9726                	add	a4,a4,s1
   1381c:	6318                	ld	a4,0(a4)
   1381e:	17fd                	addi	a5,a5,-1
   13820:	0007869b          	sext.w	a3,a5
   13824:	f77d                	bnez	a4,13812 <new_exp+0x22>
   13826:	597d                	li	s2,-1
   13828:	00341793          	slli	a5,s0,0x3
   1382c:	97a6                	add	a5,a5,s1
   1382e:	6388                	ld	a0,0(a5)
   13830:	147d                	addi	s0,s0,-1
   13832:	f75ff0ef          	jal	ra,137a6 <__gettext_free_exp>
   13836:	0004079b          	sext.w	a5,s0
   1383a:	ff2797e3          	bne	a5,s2,13828 <new_exp+0x38>
   1383e:	70a2                	ld	ra,40(sp)
   13840:	7402                	ld	s0,32(sp)
   13842:	64e2                	ld	s1,24(sp)
   13844:	6942                	ld	s2,16(sp)
   13846:	69a2                	ld	s3,8(sp)
   13848:	4501                	li	a0,0
   1384a:	6145                	addi	sp,sp,48
   1384c:	8082                	ret
   1384e:	02000513          	li	a0,32
   13852:	2bb090ef          	jal	ra,1d30c <__libc_malloc>
   13856:	d961                	beqz	a0,13826 <new_exp+0x36>
   13858:	01252023          	sw	s2,0(a0)
   1385c:	01352223          	sw	s3,4(a0)
   13860:	56fd                	li	a3,-1
   13862:	00341793          	slli	a5,s0,0x3
   13866:	00f48733          	add	a4,s1,a5
   1386a:	6318                	ld	a4,0(a4)
   1386c:	97aa                	add	a5,a5,a0
   1386e:	147d                	addi	s0,s0,-1
   13870:	e798                	sd	a4,8(a5)
   13872:	0004079b          	sext.w	a5,s0
   13876:	fed796e3          	bne	a5,a3,13862 <new_exp+0x72>
   1387a:	70a2                	ld	ra,40(sp)
   1387c:	7402                	ld	s0,32(sp)
   1387e:	64e2                	ld	s1,24(sp)
   13880:	6942                	ld	s2,16(sp)
   13882:	69a2                	ld	s3,8(sp)
   13884:	6145                	addi	sp,sp,48
   13886:	8082                	ret
   13888:	02000513          	li	a0,32
   1388c:	281090ef          	jal	ra,1d30c <__libc_malloc>
   13890:	d55d                	beqz	a0,1383e <new_exp+0x4e>
   13892:	70a2                	ld	ra,40(sp)
   13894:	7402                	ld	s0,32(sp)
   13896:	01352223          	sw	s3,4(a0)
   1389a:	00052023          	sw	zero,0(a0)
   1389e:	64e2                	ld	s1,24(sp)
   138a0:	6942                	ld	s2,16(sp)
   138a2:	69a2                	ld	s3,8(sp)
   138a4:	6145                	addi	sp,sp,48
   138a6:	8082                	ret

00000000000138a8 <__gettextparse>:
   138a8:	7171                	addi	sp,sp,-176
   138aa:	f0e2                	sd	s8,96(sp)
   138ac:	f122                	sd	s0,160(sp)
   138ae:	ed26                	sd	s1,152(sp)
   138b0:	e94a                	sd	s2,144(sp)
   138b2:	e54e                	sd	s3,136(sp)
   138b4:	e152                	sd	s4,128(sp)
   138b6:	fcd6                	sd	s5,120(sp)
   138b8:	f8da                	sd	s6,112(sp)
   138ba:	ece6                	sd	s9,88(sp)
   138bc:	e8ea                	sd	s10,80(sp)
   138be:	86018793          	addi	a5,gp,-1952 # 6b970 <yydefgoto>
   138c2:	f506                	sd	ra,168(sp)
   138c4:	f4de                	sd	s7,104(sp)
   138c6:	e4ee                	sd	s11,72(sp)
   138c8:	81010113          	addi	sp,sp,-2032
   138cc:	e43e                	sd	a5,8(sp)
   138ce:	86818793          	addi	a5,gp,-1944 # 6b978 <yypgoto>
   138d2:	f43e                	sd	a5,40(sp)
   138d4:	0004b7b7          	lui	a5,0x4b
   138d8:	29878793          	addi	a5,a5,664 # 4b298 <_nl_default_default_domain+0x80>
   138dc:	ec3e                	sd	a5,24(sp)
   138de:	0004b7b7          	lui	a5,0x4b
   138e2:	1080                	addi	s0,sp,96
   138e4:	1f010d13          	addi	s10,sp,496
   138e8:	0004b6b7          	lui	a3,0x4b
   138ec:	0004b837          	lui	a6,0x4b
   138f0:	2d078793          	addi	a5,a5,720 # 4b2d0 <_nl_default_default_domain+0xb8>
   138f4:	e82a                	sd	a0,16(sp)
   138f6:	06011023          	sh	zero,96(sp)
   138fa:	e002                	sd	zero,0(sp)
   138fc:	4481                	li	s1,0
   138fe:	0c800993          	li	s3,200
   13902:	8a6a                	mv	s4,s10
   13904:	8c22                	mv	s8,s0
   13906:	8922                	mv	s2,s0
   13908:	5af9                	li	s5,-2
   1390a:	65868b13          	addi	s6,a3,1624 # 4b658 <yypact>
   1390e:	4a080c93          	addi	s9,a6,1184 # 4b4a0 <yytranslate>
   13912:	f83e                	sd	a5,48(sp)
   13914:	009b07b3          	add	a5,s6,s1
   13918:	00078783          	lb	a5,0(a5)
   1391c:	5659                	li	a2,-10
   1391e:	853e                	mv	a0,a5
   13920:	12c78a63          	beq	a5,a2,13a54 <__gettextparse+0x1ac>
   13924:	5679                	li	a2,-2
   13926:	20ca8463          	beq	s5,a2,13b2e <__gettextparse+0x286>
   1392a:	1b505b63          	blez	s5,13ae0 <__gettextparse+0x238>
   1392e:	015c8633          	add	a2,s9,s5
   13932:	00064603          	lbu	a2,0(a2)
   13936:	00c7853b          	addw	a0,a5,a2
   1393a:	03600593          	li	a1,54
   1393e:	10a5eb63          	bltu	a1,a0,13a54 <__gettextparse+0x1ac>
   13942:	9566                	add	a0,a0,s9
   13944:	10850583          	lb	a1,264(a0)
   13948:	10c59663          	bne	a1,a2,13a54 <__gettextparse+0x1ac>
   1394c:	14054483          	lbu	s1,320(a0)
   13950:	18049b63          	bnez	s1,13ae6 <__gettextparse+0x23e>
   13954:	77a2                	ld	a5,40(sp)
   13956:	008d3503          	ld	a0,8(s10) # 2008 <catch_hook+0x1fb0>
   1395a:	8ee2                	mv	t4,s8
   1395c:	ff078783          	lb	a5,-16(a5)
   13960:	866a                	mv	a2,s10
   13962:	55c1                	li	a1,-16
   13964:	000e9e03          	lh	t3,0(t4)
   13968:	e608                	sd	a0,8(a2)
   1396a:	03600513          	li	a0,54
   1396e:	00fe07bb          	addw	a5,t3,a5
   13972:	00860d13          	addi	s10,a2,8
   13976:	00f56763          	bltu	a0,a5,13984 <__gettextparse+0xdc>
   1397a:	97e6                	add	a5,a5,s9
   1397c:	10878603          	lb	a2,264(a5)
   13980:	1dc60c63          	beq	a2,t3,13b58 <__gettextparse+0x2b0>
   13984:	67a2                	ld	a5,8(sp)
   13986:	97ae                	add	a5,a5,a1
   13988:	00078483          	lb	s1,0(a5)
   1398c:	00199593          	slli	a1,s3,0x1
   13990:	ffe58793          	addi	a5,a1,-2
   13994:	002e8c13          	addi	s8,t4,2
   13998:	009e9123          	sh	s1,2(t4)
   1399c:	97ca                	add	a5,a5,s2
   1399e:	06fc6f63          	bltu	s8,a5,13a1c <__gettextparse+0x174>
   139a2:	412c0c33          	sub	s8,s8,s2
   139a6:	6789                	lui	a5,0x2
   139a8:	401c5d13          	srai	s10,s8,0x1
   139ac:	70f78513          	addi	a0,a5,1807 # 270f <catch_hook+0x26b7>
   139b0:	0d05                	addi	s10,s10,1
   139b2:	41356b63          	bltu	a0,s3,13dc8 <__gettextparse+0x520>
   139b6:	71078793          	addi	a5,a5,1808
   139ba:	89ae                	mv	s3,a1
   139bc:	00b7f363          	bgeu	a5,a1,139c2 <__gettextparse+0x11a>
   139c0:	89be                	mv	s3,a5
   139c2:	00299513          	slli	a0,s3,0x2
   139c6:	954e                	add	a0,a0,s3
   139c8:	0506                	slli	a0,a0,0x1
   139ca:	051d                	addi	a0,a0,7
   139cc:	141090ef          	jal	ra,1d30c <__libc_malloc>
   139d0:	8baa                	mv	s7,a0
   139d2:	3e050b63          	beqz	a0,13dc8 <__gettextparse+0x520>
   139d6:	002c0613          	addi	a2,s8,2
   139da:	85ca                	mv	a1,s2
   139dc:	2670b0ef          	jal	ra,1f442 <memcpy>
   139e0:	00199d93          	slli	s11,s3,0x1
   139e4:	007d8e93          	addi	t4,s11,7
   139e8:	ff8efe93          	andi	t4,t4,-8
   139ec:	9ede                	add	t4,t4,s7
   139ee:	0d0e                	slli	s10,s10,0x3
   139f0:	8576                	mv	a0,t4
   139f2:	866a                	mv	a2,s10
   139f4:	85d2                	mv	a1,s4
   139f6:	24d0b0ef          	jal	ra,1f442 <memcpy>
   139fa:	8eaa                	mv	t4,a0
   139fc:	00890763          	beq	s2,s0,13a0a <__gettextparse+0x162>
   13a00:	f02a                	sd	a0,32(sp)
   13a02:	854a                	mv	a0,s2
   13a04:	585090ef          	jal	ra,1d788 <__free>
   13a08:	7e82                	ld	t4,32(sp)
   13a0a:	1df9                	addi	s11,s11,-2
   13a0c:	1d61                	addi	s10,s10,-8
   13a0e:	9c5e                	add	s8,s8,s7
   13a10:	9dde                	add	s11,s11,s7
   13a12:	9d76                	add	s10,s10,t4
   13a14:	3bbc7d63          	bgeu	s8,s11,13dce <__gettextparse+0x526>
   13a18:	8a76                	mv	s4,t4
   13a1a:	895e                	mv	s2,s7
   13a1c:	47a5                	li	a5,9
   13a1e:	eef49be3          	bne	s1,a5,13914 <__gettextparse+0x6c>
   13a22:	8c4a                	mv	s8,s2
   13a24:	4481                	li	s1,0
   13a26:	008c0563          	beq	s8,s0,13a30 <__gettextparse+0x188>
   13a2a:	8562                	mv	a0,s8
   13a2c:	55d090ef          	jal	ra,1d788 <__free>
   13a30:	7f010113          	addi	sp,sp,2032
   13a34:	70aa                	ld	ra,168(sp)
   13a36:	8526                	mv	a0,s1
   13a38:	740a                	ld	s0,160(sp)
   13a3a:	64ea                	ld	s1,152(sp)
   13a3c:	694a                	ld	s2,144(sp)
   13a3e:	69aa                	ld	s3,136(sp)
   13a40:	6a0a                	ld	s4,128(sp)
   13a42:	7ae6                	ld	s5,120(sp)
   13a44:	7b46                	ld	s6,112(sp)
   13a46:	7ba6                	ld	s7,104(sp)
   13a48:	7c06                	ld	s8,96(sp)
   13a4a:	6ce6                	ld	s9,88(sp)
   13a4c:	6d46                	ld	s10,80(sp)
   13a4e:	6da6                	ld	s11,72(sp)
   13a50:	614d                	addi	sp,sp,176
   13a52:	8082                	ret
   13a54:	009c8e33          	add	t3,s9,s1
   13a58:	178e4603          	lbu	a2,376(t3)
   13a5c:	0006059b          	sext.w	a1,a2
   13a60:	e229                	bnez	a2,13aa2 <__gettextparse+0x1fa>
   13a62:	6702                	ld	a4,0(sp)
   13a64:	460d                	li	a2,3
   13a66:	00c71663          	bne	a4,a2,13a72 <__gettextparse+0x1ca>
   13a6a:	0b504c63          	bgtz	s5,13b22 <__gettextparse+0x27a>
   13a6e:	220a8a63          	beqz	s5,13ca2 <__gettextparse+0x3fa>
   13a72:	5659                	li	a2,-10
   13a74:	03600593          	li	a1,54
   13a78:	4e85                	li	t4,1
   13a7a:	00c78a63          	beq	a5,a2,13a8e <__gettextparse+0x1e6>
   13a7e:	2785                	addiw	a5,a5,1
   13a80:	00f5e763          	bltu	a1,a5,13a8e <__gettextparse+0x1e6>
   13a84:	97e6                	add	a5,a5,s9
   13a86:	1087c503          	lbu	a0,264(a5)
   13a8a:	03d50e63          	beq	a0,t4,13ac6 <__gettextparse+0x21e>
   13a8e:	052c0763          	beq	s8,s2,13adc <__gettextparse+0x234>
   13a92:	ffec1783          	lh	a5,-2(s8)
   13a96:	1d61                	addi	s10,s10,-8
   13a98:	1c79                	addi	s8,s8,-2
   13a9a:	97da                	add	a5,a5,s6
   13a9c:	00078783          	lb	a5,0(a5)
   13aa0:	bfe9                	j	13a7a <__gettextparse+0x1d2>
   13aa2:	00bc87b3          	add	a5,s9,a1
   13aa6:	1987ce03          	lbu	t3,408(a5)
   13aaa:	4785                	li	a5,1
   13aac:	4eb5                	li	t4,13
   13aae:	41c787bb          	subw	a5,a5,t3
   13ab2:	078e                	slli	a5,a5,0x3
   13ab4:	97ea                	add	a5,a5,s10
   13ab6:	6388                	ld	a0,0(a5)
   13ab8:	30ceee63          	bltu	t4,a2,13dd4 <__gettextparse+0x52c>
   13abc:	67e2                	ld	a5,24(sp)
   13abe:	060a                	slli	a2,a2,0x2
   13ac0:	963e                	add	a2,a2,a5
   13ac2:	421c                	lw	a5,0(a2)
   13ac4:	8782                	jr	a5
   13ac6:	1407c483          	lbu	s1,320(a5)
   13aca:	d0f1                	beqz	s1,13a8e <__gettextparse+0x1e6>
   13acc:	77e2                	ld	a5,56(sp)
   13ace:	8ee2                	mv	t4,s8
   13ad0:	0d21                	addi	s10,s10,8
   13ad2:	00fd3023          	sd	a5,0(s10)
   13ad6:	478d                	li	a5,3
   13ad8:	e03e                	sd	a5,0(sp)
   13ada:	bd4d                	j	1398c <__gettextparse+0xe4>
   13adc:	4485                	li	s1,1
   13ade:	b7a1                	j	13a26 <__gettextparse+0x17e>
   13ae0:	4601                	li	a2,0
   13ae2:	4a81                	li	s5,0
   13ae4:	bd99                	j	1393a <__gettextparse+0x92>
   13ae6:	6782                	ld	a5,0(sp)
   13ae8:	c399                	beqz	a5,13aee <__gettextparse+0x246>
   13aea:	37fd                	addiw	a5,a5,-1
   13aec:	e03e                	sd	a5,0(sp)
   13aee:	77e2                	ld	a5,56(sp)
   13af0:	8ee2                	mv	t4,s8
   13af2:	0d21                	addi	s10,s10,8
   13af4:	00fd3023          	sd	a5,0(s10)
   13af8:	5af9                	li	s5,-2
   13afa:	bd49                	j	1398c <__gettextparse+0xe4>
   13afc:	000d3783          	ld	a5,0(s10)
   13b00:	ff0d3e03          	ld	t3,-16(s10)
   13b04:	ff8d2583          	lw	a1,-8(s10)
   13b08:	00b0                	addi	a2,sp,72
   13b0a:	4509                	li	a0,2
   13b0c:	e8be                	sd	a5,80(sp)
   13b0e:	e4f2                	sd	t3,72(sp)
   13b10:	ce1ff0ef          	jal	ra,137f0 <new_exp>
   13b14:	fe8d0613          	addi	a2,s10,-24
   13b18:	ffac0e93          	addi	t4,s8,-6
   13b1c:	57fd                	li	a5,-1
   13b1e:	4589                	li	a1,2
   13b20:	b591                	j	13964 <__gettextparse+0xbc>
   13b22:	5af9                	li	s5,-2
   13b24:	5659                	li	a2,-10
   13b26:	03600593          	li	a1,54
   13b2a:	4e85                	li	t4,1
   13b2c:	b7b9                	j	13a7a <__gettextparse+0x1d2>
   13b2e:	6742                	ld	a4,16(sp)
   13b30:	02000313          	li	t1,32
   13b34:	4ea5                	li	t4,9
   13b36:	630c                	ld	a1,0(a4)
   13b38:	0005c603          	lbu	a2,0(a1)
   13b3c:	ca09                	beqz	a2,13b4e <__gettextparse+0x2a6>
   13b3e:	00660463          	beq	a2,t1,13b46 <__gettextparse+0x29e>
   13b42:	0fd61363          	bne	a2,t4,13c28 <__gettextparse+0x380>
   13b46:	0015c603          	lbu	a2,1(a1)
   13b4a:	0585                	addi	a1,a1,1
   13b4c:	fa6d                	bnez	a2,13b3e <__gettextparse+0x296>
   13b4e:	6742                	ld	a4,16(sp)
   13b50:	4601                	li	a2,0
   13b52:	4a81                	li	s5,0
   13b54:	e30c                	sd	a1,0(a4)
   13b56:	b3d5                	j	1393a <__gettextparse+0x92>
   13b58:	1407c483          	lbu	s1,320(a5)
   13b5c:	bd05                	j	1398c <__gettextparse+0xe4>
   13b5e:	000d3783          	ld	a5,0(s10)
   13b62:	ff0d3e03          	ld	t3,-16(s10)
   13b66:	00b0                	addi	a2,sp,72
   13b68:	45bd                	li	a1,15
   13b6a:	b745                	j	13b0a <__gettextparse+0x262>
   13b6c:	000d3783          	ld	a5,0(s10)
   13b70:	ff0d3e03          	ld	t3,-16(s10)
   13b74:	00b0                	addi	a2,sp,72
   13b76:	45b9                	li	a1,14
   13b78:	bf49                	j	13b0a <__gettextparse+0x262>
   13b7a:	ff8d3503          	ld	a0,-8(s10)
   13b7e:	fe8d0613          	addi	a2,s10,-24
   13b82:	ffac0e93          	addi	t4,s8,-6
   13b86:	57fd                	li	a5,-1
   13b88:	4589                	li	a1,2
   13b8a:	bbe9                	j	13964 <__gettextparse+0xbc>
   13b8c:	4601                	li	a2,0
   13b8e:	4585                	li	a1,1
   13b90:	4501                	li	a0,0
   13b92:	c5fff0ef          	jal	ra,137f0 <new_exp>
   13b96:	ffec0e93          	addi	t4,s8,-2
   13b9a:	ff8d0613          	addi	a2,s10,-8
   13b9e:	22050263          	beqz	a0,13dc2 <__gettextparse+0x51a>
   13ba2:	000d3e03          	ld	t3,0(s10)
   13ba6:	57fd                	li	a5,-1
   13ba8:	4589                	li	a1,2
   13baa:	01c53423          	sd	t3,8(a0)
   13bae:	bb5d                	j	13964 <__gettextparse+0xbc>
   13bb0:	000d3783          	ld	a5,0(s10)
   13bb4:	c7fd                	beqz	a5,13ca2 <__gettextparse+0x3fa>
   13bb6:	6742                	ld	a4,16(sp)
   13bb8:	ff8d0613          	addi	a2,s10,-8
   13bbc:	ffec0e93          	addi	t4,s8,-2
   13bc0:	e71c                	sd	a5,8(a4)
   13bc2:	4585                	li	a1,1
   13bc4:	57d9                	li	a5,-10
   13bc6:	bb79                	j	13964 <__gettextparse+0xbc>
   13bc8:	000d3783          	ld	a5,0(s10)
   13bcc:	fe0d3e83          	ld	t4,-32(s10)
   13bd0:	ff0d3e03          	ld	t3,-16(s10)
   13bd4:	00b0                	addi	a2,sp,72
   13bd6:	45c1                	li	a1,16
   13bd8:	450d                	li	a0,3
   13bda:	e4f6                	sd	t4,72(sp)
   13bdc:	ecbe                	sd	a5,88(sp)
   13bde:	e8f2                	sd	t3,80(sp)
   13be0:	c11ff0ef          	jal	ra,137f0 <new_exp>
   13be4:	fd8d0613          	addi	a2,s10,-40
   13be8:	ff6c0e93          	addi	t4,s8,-10
   13bec:	57fd                	li	a5,-1
   13bee:	4589                	li	a1,2
   13bf0:	bb95                	j	13964 <__gettextparse+0xbc>
   13bf2:	4601                	li	a2,0
   13bf4:	4581                	li	a1,0
   13bf6:	4501                	li	a0,0
   13bf8:	bf9ff0ef          	jal	ra,137f0 <new_exp>
   13bfc:	ff8d0613          	addi	a2,s10,-8
   13c00:	ffec0e93          	addi	t4,s8,-2
   13c04:	57fd                	li	a5,-1
   13c06:	4589                	li	a1,2
   13c08:	bbb1                	j	13964 <__gettextparse+0xbc>
   13c0a:	000d3783          	ld	a5,0(s10)
   13c0e:	00b0                	addi	a2,sp,72
   13c10:	4589                	li	a1,2
   13c12:	4505                	li	a0,1
   13c14:	e4be                	sd	a5,72(sp)
   13c16:	bdbff0ef          	jal	ra,137f0 <new_exp>
   13c1a:	ff0d0613          	addi	a2,s10,-16
   13c1e:	ffcc0e93          	addi	t4,s8,-4
   13c22:	57fd                	li	a5,-1
   13c24:	4589                	li	a1,2
   13c26:	bb3d                	j	13964 <__gettextparse+0xbc>
   13c28:	ff660e9b          	addiw	t4,a2,-10
   13c2c:	0ffefe93          	andi	t4,t4,255
   13c30:	07200f93          	li	t6,114
   13c34:	00158f13          	addi	t5,a1,1
   13c38:	00060a9b          	sext.w	s5,a2
   13c3c:	01dfe863          	bltu	t6,t4,13c4c <__gettextparse+0x3a4>
   13c40:	7742                	ld	a4,48(sp)
   13c42:	0e8a                	slli	t4,t4,0x2
   13c44:	9eba                	add	t4,t4,a4
   13c46:	000eae83          	lw	t4,0(t4)
   13c4a:	8e82                	jr	t4
   13c4c:	6742                	ld	a4,16(sp)
   13c4e:	4605                	li	a2,1
   13c50:	10000a93          	li	s5,256
   13c54:	01e73023          	sd	t5,0(a4)
   13c58:	b9f9                	j	13936 <__gettextparse+0x8e>
   13c5a:	0015c503          	lbu	a0,1(a1)
   13c5e:	4625                	li	a2,9
   13c60:	fd0a831b          	addiw	t1,s5,-48
   13c64:	fd05059b          	addiw	a1,a0,-48
   13c68:	0ff5f513          	andi	a0,a1,255
   13c6c:	02a66363          	bltu	a2,a0,13c92 <__gettextparse+0x3ea>
   13c70:	4ea5                	li	t4,9
   13c72:	001f4503          	lbu	a0,1(t5)
   13c76:	00231613          	slli	a2,t1,0x2
   13c7a:	961a                	add	a2,a2,t1
   13c7c:	0005831b          	sext.w	t1,a1
   13c80:	fd05059b          	addiw	a1,a0,-48
   13c84:	0606                	slli	a2,a2,0x1
   13c86:	0ff5f513          	andi	a0,a1,255
   13c8a:	0f05                	addi	t5,t5,1
   13c8c:	9332                	add	t1,t1,a2
   13c8e:	feaef2e3          	bgeu	t4,a0,13c72 <__gettextparse+0x3ca>
   13c92:	6742                	ld	a4,16(sp)
   13c94:	fc1a                	sd	t1,56(sp)
   13c96:	462d                	li	a2,11
   13c98:	01e73023          	sd	t5,0(a4)
   13c9c:	10600a93          	li	s5,262
   13ca0:	b959                	j	13936 <__gettextparse+0x8e>
   13ca2:	8c4a                	mv	s8,s2
   13ca4:	4485                	li	s1,1
   13ca6:	b341                	j	13a26 <__gettextparse+0x17e>
   13ca8:	015c8633          	add	a2,s9,s5
   13cac:	00064603          	lbu	a2,0(a2)
   13cb0:	6742                	ld	a4,16(sp)
   13cb2:	01e73023          	sd	t5,0(a4)
   13cb6:	b141                	j	13936 <__gettextparse+0x8e>
   13cb8:	0015c503          	lbu	a0,1(a1)
   13cbc:	f8c518e3          	bne	a0,a2,13c4c <__gettextparse+0x3a4>
   13cc0:	015c8633          	add	a2,s9,s5
